

Microchip MPLAB XC8 Assembler V2.31 build 20201012212115 
                                                                                               Sat Apr 10 23:14:18 2021

Microchip MPLAB XC8 C Compiler v2.31 (Free license) build 20201012212115 Og1 
     1                           	processor	16F1717
     2                           	pagewidth 120
     3                           	opt	flic
     4                           	psect	nvCOMMON,global,class=COMMON,space=1,delta=1,noexec
     5                           	psect	cinit,global,class=CODE,merge=1,delta=2
     6                           	psect	cstackCOMMON,global,class=COMMON,space=1,delta=1,noexec
     7                           	psect	maintext,global,class=CODE,merge=1,split=1,delta=2
     8                           	psect	text1,local,class=CODE,merge=1,delta=2
     9                           	psect	text2,local,class=CODE,merge=1,delta=2
    10                           	psect	text3,local,class=CODE,merge=1,delta=2
    11                           	psect	text4,local,class=CODE,merge=1,delta=2
    12                           	psect	text5,local,class=CODE,merge=1,delta=2
    13                           	psect	text6,local,class=CODE,merge=1,delta=2
    14                           	psect	text7,local,class=CODE,merge=1,delta=2
    15                           	psect	intentry,global,class=CODE,delta=2
    16                           	psect	text9,local,class=CODE,merge=1,delta=2
    17                           	psect	text10,local,class=CODE,merge=1,delta=2
    18                           	psect	text11,local,class=CODE,merge=1,delta=2
    19                           	psect	config,global,abs,ovrld,class=CONFIG,space=4,delta=2,noexec
    20                           	dabs	1,0x7E,2
    21  0000                     
    22                           ; Version 2.20
    23                           ; Generated 12/02/2020 GMT
    24                           ; 
    25                           ; Copyright © 2020, Microchip Technology Inc. and its subsidiaries ("Microchip")
    26                           ; All rights reserved.
    27                           ; 
    28                           ; This software is developed by Microchip Technology Inc. and its subsidiaries ("Microch
      +                          ip").
    29                           ; 
    30                           ; Redistribution and use in source and binary forms, with or without modification, are
    31                           ; permitted provided that the following conditions are met:
    32                           ; 
    33                           ;     1. Redistributions of source code must retain the above copyright notice, this lis
      +                          t of
    34                           ;        conditions and the following disclaimer.
    35                           ; 
    36                           ;     2. Redistributions in binary form must reproduce the above copyright notice, this 
      +                          list
    37                           ;        of conditions and the following disclaimer in the documentation and/or other
    38                           ;        materials provided with the distribution.
    39                           ; 
    40                           ;     3. Microchip's name may not be used to endorse or promote products derived from th
      +                          is
    41                           ;        software without specific prior written permission.
    42                           ; 
    43                           ; THIS SOFTWARE IS PROVIDED BY MICROCHIP "AS IS" AND ANY EXPRESS OR IMPLIED WARRANTIES,
    44                           ; INCLUDING, BUT NOT LIMITED TO, THE IMPLIED WARRANTIES OF MERCHANTABILITY AND FITNESS F
      +                          OR
    45                           ; PURPOSE ARE DISCLAIMED.  IN NO EVENT SHALL MICROCHIP BE LIABLE FOR ANY DIRECT, INDIREC
      +                          T,
    46                           ; INCIDENTAL, SPECIAL, EXEMPLARY, OR CONSEQUENTIAL DAMAGES (INCLUDING BUT NOT LIMITED TO
    47                           ; PROCUREMENT OF SUBSTITUTE GOODS OR SERVICES; LOSS OF USE, DATA OR PROFITS; OR BUSINESS
    48                           ; INTERRUPTION) HOWSOEVER CAUSED AND ON ANY THEORY OF LIABILITY, WHETHER IN CONTRACT, ST
      +                          RICT
    49                           ; LIABILITY, OR TORT (INCLUDING NEGLIGENCE OR OTHERWISE) ARISING IN ANY WAY OUT OF THE U
      +                          SE OF
    50                           ; THIS SOFTWARE, EVEN IF ADVISED OF THE POSSIBILITY OF SUCH DAMAGE.
    51                           ; 
    52                           ; 
    53                           ; Code-generator required, PIC16F1717 Definitions
    54                           ; 
    55                           ; SFR Addresses
    56  0000                     	;# 
    57  0001                     	;# 
    58  0002                     	;# 
    59  0003                     	;# 
    60  0004                     	;# 
    61  0005                     	;# 
    62  0006                     	;# 
    63  0007                     	;# 
    64  0008                     	;# 
    65  0009                     	;# 
    66  000A                     	;# 
    67  000B                     	;# 
    68  000C                     	;# 
    69  000D                     	;# 
    70  000E                     	;# 
    71  000F                     	;# 
    72  0010                     	;# 
    73  0011                     	;# 
    74  0012                     	;# 
    75  0013                     	;# 
    76  0015                     	;# 
    77  0016                     	;# 
    78  0016                     	;# 
    79  0017                     	;# 
    80  0018                     	;# 
    81  0019                     	;# 
    82  001A                     	;# 
    83  001B                     	;# 
    84  001C                     	;# 
    85  008C                     	;# 
    86  008D                     	;# 
    87  008E                     	;# 
    88  008F                     	;# 
    89  0090                     	;# 
    90  0091                     	;# 
    91  0092                     	;# 
    92  0093                     	;# 
    93  0095                     	;# 
    94  0096                     	;# 
    95  0097                     	;# 
    96  0098                     	;# 
    97  0099                     	;# 
    98  009A                     	;# 
    99  009B                     	;# 
   100  009B                     	;# 
   101  009C                     	;# 
   102  009D                     	;# 
   103  009E                     	;# 
   104  009F                     	;# 
   105  010C                     	;# 
   106  010D                     	;# 
   107  010E                     	;# 
   108  010F                     	;# 
   109  0110                     	;# 
   110  0111                     	;# 
   111  0112                     	;# 
   112  0113                     	;# 
   113  0114                     	;# 
   114  0115                     	;# 
   115  0116                     	;# 
   116  0117                     	;# 
   117  0118                     	;# 
   118  0119                     	;# 
   119  011A                     	;# 
   120  011B                     	;# 
   121  011B                     	;# 
   122  011C                     	;# 
   123  018C                     	;# 
   124  018D                     	;# 
   125  018E                     	;# 
   126  018F                     	;# 
   127  0190                     	;# 
   128  0191                     	;# 
   129  0191                     	;# 
   130  0192                     	;# 
   131  0193                     	;# 
   132  0193                     	;# 
   133  0194                     	;# 
   134  0195                     	;# 
   135  0196                     	;# 
   136  0197                     	;# 
   137  0199                     	;# 
   138  0199                     	;# 
   139  0199                     	;# 
   140  019A                     	;# 
   141  019A                     	;# 
   142  019A                     	;# 
   143  019B                     	;# 
   144  019B                     	;# 
   145  019B                     	;# 
   146  019B                     	;# 
   147  019B                     	;# 
   148  019C                     	;# 
   149  019C                     	;# 
   150  019C                     	;# 
   151  019D                     	;# 
   152  019D                     	;# 
   153  019D                     	;# 
   154  019E                     	;# 
   155  019E                     	;# 
   156  019E                     	;# 
   157  019F                     	;# 
   158  019F                     	;# 
   159  019F                     	;# 
   160  019F                     	;# 
   161  019F                     	;# 
   162  020C                     	;# 
   163  020D                     	;# 
   164  020E                     	;# 
   165  020F                     	;# 
   166  0210                     	;# 
   167  0211                     	;# 
   168  0211                     	;# 
   169  0212                     	;# 
   170  0212                     	;# 
   171  0213                     	;# 
   172  0213                     	;# 
   173  0214                     	;# 
   174  0214                     	;# 
   175  0215                     	;# 
   176  0215                     	;# 
   177  0215                     	;# 
   178  0215                     	;# 
   179  0216                     	;# 
   180  0216                     	;# 
   181  0217                     	;# 
   182  0217                     	;# 
   183  028C                     	;# 
   184  028D                     	;# 
   185  028E                     	;# 
   186  028F                     	;# 
   187  0290                     	;# 
   188  0291                     	;# 
   189  0291                     	;# 
   190  0292                     	;# 
   191  0293                     	;# 
   192  0293                     	;# 
   193  0298                     	;# 
   194  0298                     	;# 
   195  0299                     	;# 
   196  029A                     	;# 
   197  029A                     	;# 
   198  029E                     	;# 
   199  030C                     	;# 
   200  030D                     	;# 
   201  030E                     	;# 
   202  030F                     	;# 
   203  0310                     	;# 
   204  038C                     	;# 
   205  038D                     	;# 
   206  038E                     	;# 
   207  038F                     	;# 
   208  0390                     	;# 
   209  0391                     	;# 
   210  0392                     	;# 
   211  0393                     	;# 
   212  0394                     	;# 
   213  0395                     	;# 
   214  0396                     	;# 
   215  0397                     	;# 
   216  0398                     	;# 
   217  0399                     	;# 
   218  039D                     	;# 
   219  039E                     	;# 
   220  039F                     	;# 
   221  0415                     	;# 
   222  0416                     	;# 
   223  0417                     	;# 
   224  041C                     	;# 
   225  041D                     	;# 
   226  041E                     	;# 
   227  0498                     	;# 
   228  0498                     	;# 
   229  0499                     	;# 
   230  049A                     	;# 
   231  049B                     	;# 
   232  049B                     	;# 
   233  049C                     	;# 
   234  049D                     	;# 
   235  049E                     	;# 
   236  049F                     	;# 
   237  0511                     	;# 
   238  0515                     	;# 
   239  0617                     	;# 
   240  0618                     	;# 
   241  0619                     	;# 
   242  0619                     	;# 
   243  061A                     	;# 
   244  061B                     	;# 
   245  061C                     	;# 
   246  061C                     	;# 
   247  0691                     	;# 
   248  0692                     	;# 
   249  0693                     	;# 
   250  0694                     	;# 
   251  0695                     	;# 
   252  0696                     	;# 
   253  0697                     	;# 
   254  0698                     	;# 
   255  0699                     	;# 
   256  069A                     	;# 
   257  069B                     	;# 
   258  069C                     	;# 
   259  069D                     	;# 
   260  069E                     	;# 
   261  069F                     	;# 
   262  0E0F                     	;# 
   263  0E10                     	;# 
   264  0E11                     	;# 
   265  0E12                     	;# 
   266  0E13                     	;# 
   267  0E14                     	;# 
   268  0E15                     	;# 
   269  0E17                     	;# 
   270  0E20                     	;# 
   271  0E21                     	;# 
   272  0E22                     	;# 
   273  0E24                     	;# 
   274  0E25                     	;# 
   275  0E28                     	;# 
   276  0E29                     	;# 
   277  0E2A                     	;# 
   278  0E2B                     	;# 
   279  0E90                     	;# 
   280  0E91                     	;# 
   281  0E92                     	;# 
   282  0E93                     	;# 
   283  0E94                     	;# 
   284  0E95                     	;# 
   285  0E96                     	;# 
   286  0E97                     	;# 
   287  0E98                     	;# 
   288  0E99                     	;# 
   289  0E9A                     	;# 
   290  0E9B                     	;# 
   291  0E9C                     	;# 
   292  0E9D                     	;# 
   293  0E9E                     	;# 
   294  0E9F                     	;# 
   295  0EA0                     	;# 
   296  0EA1                     	;# 
   297  0EA2                     	;# 
   298  0EA3                     	;# 
   299  0EA4                     	;# 
   300  0EA5                     	;# 
   301  0EA6                     	;# 
   302  0EA7                     	;# 
   303  0EA8                     	;# 
   304  0EA9                     	;# 
   305  0EAA                     	;# 
   306  0EAB                     	;# 
   307  0EAC                     	;# 
   308  0EAD                     	;# 
   309  0EAE                     	;# 
   310  0EAF                     	;# 
   311  0EB0                     	;# 
   312  0EB1                     	;# 
   313  0EB2                     	;# 
   314  0F0F                     	;# 
   315  0F10                     	;# 
   316  0F11                     	;# 
   317  0F12                     	;# 
   318  0F13                     	;# 
   319  0F14                     	;# 
   320  0F15                     	;# 
   321  0F16                     	;# 
   322  0F17                     	;# 
   323  0F18                     	;# 
   324  0F19                     	;# 
   325  0F1A                     	;# 
   326  0F1B                     	;# 
   327  0F1C                     	;# 
   328  0F1D                     	;# 
   329  0F1E                     	;# 
   330  0F1F                     	;# 
   331  0F20                     	;# 
   332  0F21                     	;# 
   333  0F22                     	;# 
   334  0F23                     	;# 
   335  0F24                     	;# 
   336  0F25                     	;# 
   337  0F26                     	;# 
   338  0F27                     	;# 
   339  0F28                     	;# 
   340  0F29                     	;# 
   341  0F2A                     	;# 
   342  0F2B                     	;# 
   343  0F2C                     	;# 
   344  0F2D                     	;# 
   345  0F2E                     	;# 
   346  0F2F                     	;# 
   347  0F30                     	;# 
   348  0F31                     	;# 
   349  0F32                     	;# 
   350  0F33                     	;# 
   351  0F34                     	;# 
   352  0F35                     	;# 
   353  0F36                     	;# 
   354  0F37                     	;# 
   355  0FE4                     	;# 
   356  0FE5                     	;# 
   357  0FE6                     	;# 
   358  0FE7                     	;# 
   359  0FE8                     	;# 
   360  0FE9                     	;# 
   361  0FEA                     	;# 
   362  0FEB                     	;# 
   363  0FED                     	;# 
   364  0FEE                     	;# 
   365  0FEF                     	;# 
   366  0000                     	;# 
   367  0001                     	;# 
   368  0002                     	;# 
   369  0003                     	;# 
   370  0004                     	;# 
   371  0005                     	;# 
   372  0006                     	;# 
   373  0007                     	;# 
   374  0008                     	;# 
   375  0009                     	;# 
   376  000A                     	;# 
   377  000B                     	;# 
   378  000C                     	;# 
   379  000D                     	;# 
   380  000E                     	;# 
   381  000F                     	;# 
   382  0010                     	;# 
   383  0011                     	;# 
   384  0012                     	;# 
   385  0013                     	;# 
   386  0015                     	;# 
   387  0016                     	;# 
   388  0016                     	;# 
   389  0017                     	;# 
   390  0018                     	;# 
   391  0019                     	;# 
   392  001A                     	;# 
   393  001B                     	;# 
   394  001C                     	;# 
   395  008C                     	;# 
   396  008D                     	;# 
   397  008E                     	;# 
   398  008F                     	;# 
   399  0090                     	;# 
   400  0091                     	;# 
   401  0092                     	;# 
   402  0093                     	;# 
   403  0095                     	;# 
   404  0096                     	;# 
   405  0097                     	;# 
   406  0098                     	;# 
   407  0099                     	;# 
   408  009A                     	;# 
   409  009B                     	;# 
   410  009B                     	;# 
   411  009C                     	;# 
   412  009D                     	;# 
   413  009E                     	;# 
   414  009F                     	;# 
   415  010C                     	;# 
   416  010D                     	;# 
   417  010E                     	;# 
   418  010F                     	;# 
   419  0110                     	;# 
   420  0111                     	;# 
   421  0112                     	;# 
   422  0113                     	;# 
   423  0114                     	;# 
   424  0115                     	;# 
   425  0116                     	;# 
   426  0117                     	;# 
   427  0118                     	;# 
   428  0119                     	;# 
   429  011A                     	;# 
   430  011B                     	;# 
   431  011B                     	;# 
   432  011C                     	;# 
   433  018C                     	;# 
   434  018D                     	;# 
   435  018E                     	;# 
   436  018F                     	;# 
   437  0190                     	;# 
   438  0191                     	;# 
   439  0191                     	;# 
   440  0192                     	;# 
   441  0193                     	;# 
   442  0193                     	;# 
   443  0194                     	;# 
   444  0195                     	;# 
   445  0196                     	;# 
   446  0197                     	;# 
   447  0199                     	;# 
   448  0199                     	;# 
   449  0199                     	;# 
   450  019A                     	;# 
   451  019A                     	;# 
   452  019A                     	;# 
   453  019B                     	;# 
   454  019B                     	;# 
   455  019B                     	;# 
   456  019B                     	;# 
   457  019B                     	;# 
   458  019C                     	;# 
   459  019C                     	;# 
   460  019C                     	;# 
   461  019D                     	;# 
   462  019D                     	;# 
   463  019D                     	;# 
   464  019E                     	;# 
   465  019E                     	;# 
   466  019E                     	;# 
   467  019F                     	;# 
   468  019F                     	;# 
   469  019F                     	;# 
   470  019F                     	;# 
   471  019F                     	;# 
   472  020C                     	;# 
   473  020D                     	;# 
   474  020E                     	;# 
   475  020F                     	;# 
   476  0210                     	;# 
   477  0211                     	;# 
   478  0211                     	;# 
   479  0212                     	;# 
   480  0212                     	;# 
   481  0213                     	;# 
   482  0213                     	;# 
   483  0214                     	;# 
   484  0214                     	;# 
   485  0215                     	;# 
   486  0215                     	;# 
   487  0215                     	;# 
   488  0215                     	;# 
   489  0216                     	;# 
   490  0216                     	;# 
   491  0217                     	;# 
   492  0217                     	;# 
   493  028C                     	;# 
   494  028D                     	;# 
   495  028E                     	;# 
   496  028F                     	;# 
   497  0290                     	;# 
   498  0291                     	;# 
   499  0291                     	;# 
   500  0292                     	;# 
   501  0293                     	;# 
   502  0293                     	;# 
   503  0298                     	;# 
   504  0298                     	;# 
   505  0299                     	;# 
   506  029A                     	;# 
   507  029A                     	;# 
   508  029E                     	;# 
   509  030C                     	;# 
   510  030D                     	;# 
   511  030E                     	;# 
   512  030F                     	;# 
   513  0310                     	;# 
   514  038C                     	;# 
   515  038D                     	;# 
   516  038E                     	;# 
   517  038F                     	;# 
   518  0390                     	;# 
   519  0391                     	;# 
   520  0392                     	;# 
   521  0393                     	;# 
   522  0394                     	;# 
   523  0395                     	;# 
   524  0396                     	;# 
   525  0397                     	;# 
   526  0398                     	;# 
   527  0399                     	;# 
   528  039D                     	;# 
   529  039E                     	;# 
   530  039F                     	;# 
   531  0415                     	;# 
   532  0416                     	;# 
   533  0417                     	;# 
   534  041C                     	;# 
   535  041D                     	;# 
   536  041E                     	;# 
   537  0498                     	;# 
   538  0498                     	;# 
   539  0499                     	;# 
   540  049A                     	;# 
   541  049B                     	;# 
   542  049B                     	;# 
   543  049C                     	;# 
   544  049D                     	;# 
   545  049E                     	;# 
   546  049F                     	;# 
   547  0511                     	;# 
   548  0515                     	;# 
   549  0617                     	;# 
   550  0618                     	;# 
   551  0619                     	;# 
   552  0619                     	;# 
   553  061A                     	;# 
   554  061B                     	;# 
   555  061C                     	;# 
   556  061C                     	;# 
   557  0691                     	;# 
   558  0692                     	;# 
   559  0693                     	;# 
   560  0694                     	;# 
   561  0695                     	;# 
   562  0696                     	;# 
   563  0697                     	;# 
   564  0698                     	;# 
   565  0699                     	;# 
   566  069A                     	;# 
   567  069B                     	;# 
   568  069C                     	;# 
   569  069D                     	;# 
   570  069E                     	;# 
   571  069F                     	;# 
   572  0E0F                     	;# 
   573  0E10                     	;# 
   574  0E11                     	;# 
   575  0E12                     	;# 
   576  0E13                     	;# 
   577  0E14                     	;# 
   578  0E15                     	;# 
   579  0E17                     	;# 
   580  0E20                     	;# 
   581  0E21                     	;# 
   582  0E22                     	;# 
   583  0E24                     	;# 
   584  0E25                     	;# 
   585  0E28                     	;# 
   586  0E29                     	;# 
   587  0E2A                     	;# 
   588  0E2B                     	;# 
   589  0E90                     	;# 
   590  0E91                     	;# 
   591  0E92                     	;# 
   592  0E93                     	;# 
   593  0E94                     	;# 
   594  0E95                     	;# 
   595  0E96                     	;# 
   596  0E97                     	;# 
   597  0E98                     	;# 
   598  0E99                     	;# 
   599  0E9A                     	;# 
   600  0E9B                     	;# 
   601  0E9C                     	;# 
   602  0E9D                     	;# 
   603  0E9E                     	;# 
   604  0E9F                     	;# 
   605  0EA0                     	;# 
   606  0EA1                     	;# 
   607  0EA2                     	;# 
   608  0EA3                     	;# 
   609  0EA4                     	;# 
   610  0EA5                     	;# 
   611  0EA6                     	;# 
   612  0EA7                     	;# 
   613  0EA8                     	;# 
   614  0EA9                     	;# 
   615  0EAA                     	;# 
   616  0EAB                     	;# 
   617  0EAC                     	;# 
   618  0EAD                     	;# 
   619  0EAE                     	;# 
   620  0EAF                     	;# 
   621  0EB0                     	;# 
   622  0EB1                     	;# 
   623  0EB2                     	;# 
   624  0F0F                     	;# 
   625  0F10                     	;# 
   626  0F11                     	;# 
   627  0F12                     	;# 
   628  0F13                     	;# 
   629  0F14                     	;# 
   630  0F15                     	;# 
   631  0F16                     	;# 
   632  0F17                     	;# 
   633  0F18                     	;# 
   634  0F19                     	;# 
   635  0F1A                     	;# 
   636  0F1B                     	;# 
   637  0F1C                     	;# 
   638  0F1D                     	;# 
   639  0F1E                     	;# 
   640  0F1F                     	;# 
   641  0F20                     	;# 
   642  0F21                     	;# 
   643  0F22                     	;# 
   644  0F23                     	;# 
   645  0F24                     	;# 
   646  0F25                     	;# 
   647  0F26                     	;# 
   648  0F27                     	;# 
   649  0F28                     	;# 
   650  0F29                     	;# 
   651  0F2A                     	;# 
   652  0F2B                     	;# 
   653  0F2C                     	;# 
   654  0F2D                     	;# 
   655  0F2E                     	;# 
   656  0F2F                     	;# 
   657  0F30                     	;# 
   658  0F31                     	;# 
   659  0F32                     	;# 
   660  0F33                     	;# 
   661  0F34                     	;# 
   662  0F35                     	;# 
   663  0F36                     	;# 
   664  0F37                     	;# 
   665  0FE4                     	;# 
   666  0FE5                     	;# 
   667  0FE6                     	;# 
   668  0FE7                     	;# 
   669  0FE8                     	;# 
   670  0FE9                     	;# 
   671  0FEA                     	;# 
   672  0FEB                     	;# 
   673  0FED                     	;# 
   674  0FEE                     	;# 
   675  0FEF                     	;# 
   676  0000                     	;# 
   677  0001                     	;# 
   678  0002                     	;# 
   679  0003                     	;# 
   680  0004                     	;# 
   681  0005                     	;# 
   682  0006                     	;# 
   683  0007                     	;# 
   684  0008                     	;# 
   685  0009                     	;# 
   686  000A                     	;# 
   687  000B                     	;# 
   688  000C                     	;# 
   689  000D                     	;# 
   690  000E                     	;# 
   691  000F                     	;# 
   692  0010                     	;# 
   693  0011                     	;# 
   694  0012                     	;# 
   695  0013                     	;# 
   696  0015                     	;# 
   697  0016                     	;# 
   698  0016                     	;# 
   699  0017                     	;# 
   700  0018                     	;# 
   701  0019                     	;# 
   702  001A                     	;# 
   703  001B                     	;# 
   704  001C                     	;# 
   705  008C                     	;# 
   706  008D                     	;# 
   707  008E                     	;# 
   708  008F                     	;# 
   709  0090                     	;# 
   710  0091                     	;# 
   711  0092                     	;# 
   712  0093                     	;# 
   713  0095                     	;# 
   714  0096                     	;# 
   715  0097                     	;# 
   716  0098                     	;# 
   717  0099                     	;# 
   718  009A                     	;# 
   719  009B                     	;# 
   720  009B                     	;# 
   721  009C                     	;# 
   722  009D                     	;# 
   723  009E                     	;# 
   724  009F                     	;# 
   725  010C                     	;# 
   726  010D                     	;# 
   727  010E                     	;# 
   728  010F                     	;# 
   729  0110                     	;# 
   730  0111                     	;# 
   731  0112                     	;# 
   732  0113                     	;# 
   733  0114                     	;# 
   734  0115                     	;# 
   735  0116                     	;# 
   736  0117                     	;# 
   737  0118                     	;# 
   738  0119                     	;# 
   739  011A                     	;# 
   740  011B                     	;# 
   741  011B                     	;# 
   742  011C                     	;# 
   743  018C                     	;# 
   744  018D                     	;# 
   745  018E                     	;# 
   746  018F                     	;# 
   747  0190                     	;# 
   748  0191                     	;# 
   749  0191                     	;# 
   750  0192                     	;# 
   751  0193                     	;# 
   752  0193                     	;# 
   753  0194                     	;# 
   754  0195                     	;# 
   755  0196                     	;# 
   756  0197                     	;# 
   757  0199                     	;# 
   758  0199                     	;# 
   759  0199                     	;# 
   760  019A                     	;# 
   761  019A                     	;# 
   762  019A                     	;# 
   763  019B                     	;# 
   764  019B                     	;# 
   765  019B                     	;# 
   766  019B                     	;# 
   767  019B                     	;# 
   768  019C                     	;# 
   769  019C                     	;# 
   770  019C                     	;# 
   771  019D                     	;# 
   772  019D                     	;# 
   773  019D                     	;# 
   774  019E                     	;# 
   775  019E                     	;# 
   776  019E                     	;# 
   777  019F                     	;# 
   778  019F                     	;# 
   779  019F                     	;# 
   780  019F                     	;# 
   781  019F                     	;# 
   782  020C                     	;# 
   783  020D                     	;# 
   784  020E                     	;# 
   785  020F                     	;# 
   786  0210                     	;# 
   787  0211                     	;# 
   788  0211                     	;# 
   789  0212                     	;# 
   790  0212                     	;# 
   791  0213                     	;# 
   792  0213                     	;# 
   793  0214                     	;# 
   794  0214                     	;# 
   795  0215                     	;# 
   796  0215                     	;# 
   797  0215                     	;# 
   798  0215                     	;# 
   799  0216                     	;# 
   800  0216                     	;# 
   801  0217                     	;# 
   802  0217                     	;# 
   803  028C                     	;# 
   804  028D                     	;# 
   805  028E                     	;# 
   806  028F                     	;# 
   807  0290                     	;# 
   808  0291                     	;# 
   809  0291                     	;# 
   810  0292                     	;# 
   811  0293                     	;# 
   812  0293                     	;# 
   813  0298                     	;# 
   814  0298                     	;# 
   815  0299                     	;# 
   816  029A                     	;# 
   817  029A                     	;# 
   818  029E                     	;# 
   819  030C                     	;# 
   820  030D                     	;# 
   821  030E                     	;# 
   822  030F                     	;# 
   823  0310                     	;# 
   824  038C                     	;# 
   825  038D                     	;# 
   826  038E                     	;# 
   827  038F                     	;# 
   828  0390                     	;# 
   829  0391                     	;# 
   830  0392                     	;# 
   831  0393                     	;# 
   832  0394                     	;# 
   833  0395                     	;# 
   834  0396                     	;# 
   835  0397                     	;# 
   836  0398                     	;# 
   837  0399                     	;# 
   838  039D                     	;# 
   839  039E                     	;# 
   840  039F                     	;# 
   841  0415                     	;# 
   842  0416                     	;# 
   843  0417                     	;# 
   844  041C                     	;# 
   845  041D                     	;# 
   846  041E                     	;# 
   847  0498                     	;# 
   848  0498                     	;# 
   849  0499                     	;# 
   850  049A                     	;# 
   851  049B                     	;# 
   852  049B                     	;# 
   853  049C                     	;# 
   854  049D                     	;# 
   855  049E                     	;# 
   856  049F                     	;# 
   857  0511                     	;# 
   858  0515                     	;# 
   859  0617                     	;# 
   860  0618                     	;# 
   861  0619                     	;# 
   862  0619                     	;# 
   863  061A                     	;# 
   864  061B                     	;# 
   865  061C                     	;# 
   866  061C                     	;# 
   867  0691                     	;# 
   868  0692                     	;# 
   869  0693                     	;# 
   870  0694                     	;# 
   871  0695                     	;# 
   872  0696                     	;# 
   873  0697                     	;# 
   874  0698                     	;# 
   875  0699                     	;# 
   876  069A                     	;# 
   877  069B                     	;# 
   878  069C                     	;# 
   879  069D                     	;# 
   880  069E                     	;# 
   881  069F                     	;# 
   882  0E0F                     	;# 
   883  0E10                     	;# 
   884  0E11                     	;# 
   885  0E12                     	;# 
   886  0E13                     	;# 
   887  0E14                     	;# 
   888  0E15                     	;# 
   889  0E17                     	;# 
   890  0E20                     	;# 
   891  0E21                     	;# 
   892  0E22                     	;# 
   893  0E24                     	;# 
   894  0E25                     	;# 
   895  0E28                     	;# 
   896  0E29                     	;# 
   897  0E2A                     	;# 
   898  0E2B                     	;# 
   899  0E90                     	;# 
   900  0E91                     	;# 
   901  0E92                     	;# 
   902  0E93                     	;# 
   903  0E94                     	;# 
   904  0E95                     	;# 
   905  0E96                     	;# 
   906  0E97                     	;# 
   907  0E98                     	;# 
   908  0E99                     	;# 
   909  0E9A                     	;# 
   910  0E9B                     	;# 
   911  0E9C                     	;# 
   912  0E9D                     	;# 
   913  0E9E                     	;# 
   914  0E9F                     	;# 
   915  0EA0                     	;# 
   916  0EA1                     	;# 
   917  0EA2                     	;# 
   918  0EA3                     	;# 
   919  0EA4                     	;# 
   920  0EA5                     	;# 
   921  0EA6                     	;# 
   922  0EA7                     	;# 
   923  0EA8                     	;# 
   924  0EA9                     	;# 
   925  0EAA                     	;# 
   926  0EAB                     	;# 
   927  0EAC                     	;# 
   928  0EAD                     	;# 
   929  0EAE                     	;# 
   930  0EAF                     	;# 
   931  0EB0                     	;# 
   932  0EB1                     	;# 
   933  0EB2                     	;# 
   934  0F0F                     	;# 
   935  0F10                     	;# 
   936  0F11                     	;# 
   937  0F12                     	;# 
   938  0F13                     	;# 
   939  0F14                     	;# 
   940  0F15                     	;# 
   941  0F16                     	;# 
   942  0F17                     	;# 
   943  0F18                     	;# 
   944  0F19                     	;# 
   945  0F1A                     	;# 
   946  0F1B                     	;# 
   947  0F1C                     	;# 
   948  0F1D                     	;# 
   949  0F1E                     	;# 
   950  0F1F                     	;# 
   951  0F20                     	;# 
   952  0F21                     	;# 
   953  0F22                     	;# 
   954  0F23                     	;# 
   955  0F24                     	;# 
   956  0F25                     	;# 
   957  0F26                     	;# 
   958  0F27                     	;# 
   959  0F28                     	;# 
   960  0F29                     	;# 
   961  0F2A                     	;# 
   962  0F2B                     	;# 
   963  0F2C                     	;# 
   964  0F2D                     	;# 
   965  0F2E                     	;# 
   966  0F2F                     	;# 
   967  0F30                     	;# 
   968  0F31                     	;# 
   969  0F32                     	;# 
   970  0F33                     	;# 
   971  0F34                     	;# 
   972  0F35                     	;# 
   973  0F36                     	;# 
   974  0F37                     	;# 
   975  0FE4                     	;# 
   976  0FE5                     	;# 
   977  0FE6                     	;# 
   978  0FE7                     	;# 
   979  0FE8                     	;# 
   980  0FE9                     	;# 
   981  0FEA                     	;# 
   982  0FEB                     	;# 
   983  0FED                     	;# 
   984  0FEE                     	;# 
   985  0FEF                     	;# 
   986  0000                     	;# 
   987  0001                     	;# 
   988  0002                     	;# 
   989  0003                     	;# 
   990  0004                     	;# 
   991  0005                     	;# 
   992  0006                     	;# 
   993  0007                     	;# 
   994  0008                     	;# 
   995  0009                     	;# 
   996  000A                     	;# 
   997  000B                     	;# 
   998  000C                     	;# 
   999  000D                     	;# 
  1000  000E                     	;# 
  1001  000F                     	;# 
  1002  0010                     	;# 
  1003  0011                     	;# 
  1004  0012                     	;# 
  1005  0013                     	;# 
  1006  0015                     	;# 
  1007  0016                     	;# 
  1008  0016                     	;# 
  1009  0017                     	;# 
  1010  0018                     	;# 
  1011  0019                     	;# 
  1012  001A                     	;# 
  1013  001B                     	;# 
  1014  001C                     	;# 
  1015  008C                     	;# 
  1016  008D                     	;# 
  1017  008E                     	;# 
  1018  008F                     	;# 
  1019  0090                     	;# 
  1020  0091                     	;# 
  1021  0092                     	;# 
  1022  0093                     	;# 
  1023  0095                     	;# 
  1024  0096                     	;# 
  1025  0097                     	;# 
  1026  0098                     	;# 
  1027  0099                     	;# 
  1028  009A                     	;# 
  1029  009B                     	;# 
  1030  009B                     	;# 
  1031  009C                     	;# 
  1032  009D                     	;# 
  1033  009E                     	;# 
  1034  009F                     	;# 
  1035  010C                     	;# 
  1036  010D                     	;# 
  1037  010E                     	;# 
  1038  010F                     	;# 
  1039  0110                     	;# 
  1040  0111                     	;# 
  1041  0112                     	;# 
  1042  0113                     	;# 
  1043  0114                     	;# 
  1044  0115                     	;# 
  1045  0116                     	;# 
  1046  0117                     	;# 
  1047  0118                     	;# 
  1048  0119                     	;# 
  1049  011A                     	;# 
  1050  011B                     	;# 
  1051  011B                     	;# 
  1052  011C                     	;# 
  1053  018C                     	;# 
  1054  018D                     	;# 
  1055  018E                     	;# 
  1056  018F                     	;# 
  1057  0190                     	;# 
  1058  0191                     	;# 
  1059  0191                     	;# 
  1060  0192                     	;# 
  1061  0193                     	;# 
  1062  0193                     	;# 
  1063  0194                     	;# 
  1064  0195                     	;# 
  1065  0196                     	;# 
  1066  0197                     	;# 
  1067  0199                     	;# 
  1068  0199                     	;# 
  1069  0199                     	;# 
  1070  019A                     	;# 
  1071  019A                     	;# 
  1072  019A                     	;# 
  1073  019B                     	;# 
  1074  019B                     	;# 
  1075  019B                     	;# 
  1076  019B                     	;# 
  1077  019B                     	;# 
  1078  019C                     	;# 
  1079  019C                     	;# 
  1080  019C                     	;# 
  1081  019D                     	;# 
  1082  019D                     	;# 
  1083  019D                     	;# 
  1084  019E                     	;# 
  1085  019E                     	;# 
  1086  019E                     	;# 
  1087  019F                     	;# 
  1088  019F                     	;# 
  1089  019F                     	;# 
  1090  019F                     	;# 
  1091  019F                     	;# 
  1092  020C                     	;# 
  1093  020D                     	;# 
  1094  020E                     	;# 
  1095  020F                     	;# 
  1096  0210                     	;# 
  1097  0211                     	;# 
  1098  0211                     	;# 
  1099  0212                     	;# 
  1100  0212                     	;# 
  1101  0213                     	;# 
  1102  0213                     	;# 
  1103  0214                     	;# 
  1104  0214                     	;# 
  1105  0215                     	;# 
  1106  0215                     	;# 
  1107  0215                     	;# 
  1108  0215                     	;# 
  1109  0216                     	;# 
  1110  0216                     	;# 
  1111  0217                     	;# 
  1112  0217                     	;# 
  1113  028C                     	;# 
  1114  028D                     	;# 
  1115  028E                     	;# 
  1116  028F                     	;# 
  1117  0290                     	;# 
  1118  0291                     	;# 
  1119  0291                     	;# 
  1120  0292                     	;# 
  1121  0293                     	;# 
  1122  0293                     	;# 
  1123  0298                     	;# 
  1124  0298                     	;# 
  1125  0299                     	;# 
  1126  029A                     	;# 
  1127  029A                     	;# 
  1128  029E                     	;# 
  1129  030C                     	;# 
  1130  030D                     	;# 
  1131  030E                     	;# 
  1132  030F                     	;# 
  1133  0310                     	;# 
  1134  038C                     	;# 
  1135  038D                     	;# 
  1136  038E                     	;# 
  1137  038F                     	;# 
  1138  0390                     	;# 
  1139  0391                     	;# 
  1140  0392                     	;# 
  1141  0393                     	;# 
  1142  0394                     	;# 
  1143  0395                     	;# 
  1144  0396                     	;# 
  1145  0397                     	;# 
  1146  0398                     	;# 
  1147  0399                     	;# 
  1148  039D                     	;# 
  1149  039E                     	;# 
  1150  039F                     	;# 
  1151  0415                     	;# 
  1152  0416                     	;# 
  1153  0417                     	;# 
  1154  041C                     	;# 
  1155  041D                     	;# 
  1156  041E                     	;# 
  1157  0498                     	;# 
  1158  0498                     	;# 
  1159  0499                     	;# 
  1160  049A                     	;# 
  1161  049B                     	;# 
  1162  049B                     	;# 
  1163  049C                     	;# 
  1164  049D                     	;# 
  1165  049E                     	;# 
  1166  049F                     	;# 
  1167  0511                     	;# 
  1168  0515                     	;# 
  1169  0617                     	;# 
  1170  0618                     	;# 
  1171  0619                     	;# 
  1172  0619                     	;# 
  1173  061A                     	;# 
  1174  061B                     	;# 
  1175  061C                     	;# 
  1176  061C                     	;# 
  1177  0691                     	;# 
  1178  0692                     	;# 
  1179  0693                     	;# 
  1180  0694                     	;# 
  1181  0695                     	;# 
  1182  0696                     	;# 
  1183  0697                     	;# 
  1184  0698                     	;# 
  1185  0699                     	;# 
  1186  069A                     	;# 
  1187  069B                     	;# 
  1188  069C                     	;# 
  1189  069D                     	;# 
  1190  069E                     	;# 
  1191  069F                     	;# 
  1192  0E0F                     	;# 
  1193  0E10                     	;# 
  1194  0E11                     	;# 
  1195  0E12                     	;# 
  1196  0E13                     	;# 
  1197  0E14                     	;# 
  1198  0E15                     	;# 
  1199  0E17                     	;# 
  1200  0E20                     	;# 
  1201  0E21                     	;# 
  1202  0E22                     	;# 
  1203  0E24                     	;# 
  1204  0E25                     	;# 
  1205  0E28                     	;# 
  1206  0E29                     	;# 
  1207  0E2A                     	;# 
  1208  0E2B                     	;# 
  1209  0E90                     	;# 
  1210  0E91                     	;# 
  1211  0E92                     	;# 
  1212  0E93                     	;# 
  1213  0E94                     	;# 
  1214  0E95                     	;# 
  1215  0E96                     	;# 
  1216  0E97                     	;# 
  1217  0E98                     	;# 
  1218  0E99                     	;# 
  1219  0E9A                     	;# 
  1220  0E9B                     	;# 
  1221  0E9C                     	;# 
  1222  0E9D                     	;# 
  1223  0E9E                     	;# 
  1224  0E9F                     	;# 
  1225  0EA0                     	;# 
  1226  0EA1                     	;# 
  1227  0EA2                     	;# 
  1228  0EA3                     	;# 
  1229  0EA4                     	;# 
  1230  0EA5                     	;# 
  1231  0EA6                     	;# 
  1232  0EA7                     	;# 
  1233  0EA8                     	;# 
  1234  0EA9                     	;# 
  1235  0EAA                     	;# 
  1236  0EAB                     	;# 
  1237  0EAC                     	;# 
  1238  0EAD                     	;# 
  1239  0EAE                     	;# 
  1240  0EAF                     	;# 
  1241  0EB0                     	;# 
  1242  0EB1                     	;# 
  1243  0EB2                     	;# 
  1244  0F0F                     	;# 
  1245  0F10                     	;# 
  1246  0F11                     	;# 
  1247  0F12                     	;# 
  1248  0F13                     	;# 
  1249  0F14                     	;# 
  1250  0F15                     	;# 
  1251  0F16                     	;# 
  1252  0F17                     	;# 
  1253  0F18                     	;# 
  1254  0F19                     	;# 
  1255  0F1A                     	;# 
  1256  0F1B                     	;# 
  1257  0F1C                     	;# 
  1258  0F1D                     	;# 
  1259  0F1E                     	;# 
  1260  0F1F                     	;# 
  1261  0F20                     	;# 
  1262  0F21                     	;# 
  1263  0F22                     	;# 
  1264  0F23                     	;# 
  1265  0F24                     	;# 
  1266  0F25                     	;# 
  1267  0F26                     	;# 
  1268  0F27                     	;# 
  1269  0F28                     	;# 
  1270  0F29                     	;# 
  1271  0F2A                     	;# 
  1272  0F2B                     	;# 
  1273  0F2C                     	;# 
  1274  0F2D                     	;# 
  1275  0F2E                     	;# 
  1276  0F2F                     	;# 
  1277  0F30                     	;# 
  1278  0F31                     	;# 
  1279  0F32                     	;# 
  1280  0F33                     	;# 
  1281  0F34                     	;# 
  1282  0F35                     	;# 
  1283  0F36                     	;# 
  1284  0F37                     	;# 
  1285  0FE4                     	;# 
  1286  0FE5                     	;# 
  1287  0FE6                     	;# 
  1288  0FE7                     	;# 
  1289  0FE8                     	;# 
  1290  0FE9                     	;# 
  1291  0FEA                     	;# 
  1292  0FEB                     	;# 
  1293  0FED                     	;# 
  1294  0FEE                     	;# 
  1295  0FEF                     	;# 
  1296  0000                     	;# 
  1297  0001                     	;# 
  1298  0002                     	;# 
  1299  0003                     	;# 
  1300  0004                     	;# 
  1301  0005                     	;# 
  1302  0006                     	;# 
  1303  0007                     	;# 
  1304  0008                     	;# 
  1305  0009                     	;# 
  1306  000A                     	;# 
  1307  000B                     	;# 
  1308  000C                     	;# 
  1309  000D                     	;# 
  1310  000E                     	;# 
  1311  000F                     	;# 
  1312  0010                     	;# 
  1313  0011                     	;# 
  1314  0012                     	;# 
  1315  0013                     	;# 
  1316  0015                     	;# 
  1317  0016                     	;# 
  1318  0016                     	;# 
  1319  0017                     	;# 
  1320  0018                     	;# 
  1321  0019                     	;# 
  1322  001A                     	;# 
  1323  001B                     	;# 
  1324  001C                     	;# 
  1325  008C                     	;# 
  1326  008D                     	;# 
  1327  008E                     	;# 
  1328  008F                     	;# 
  1329  0090                     	;# 
  1330  0091                     	;# 
  1331  0092                     	;# 
  1332  0093                     	;# 
  1333  0095                     	;# 
  1334  0096                     	;# 
  1335  0097                     	;# 
  1336  0098                     	;# 
  1337  0099                     	;# 
  1338  009A                     	;# 
  1339  009B                     	;# 
  1340  009B                     	;# 
  1341  009C                     	;# 
  1342  009D                     	;# 
  1343  009E                     	;# 
  1344  009F                     	;# 
  1345  010C                     	;# 
  1346  010D                     	;# 
  1347  010E                     	;# 
  1348  010F                     	;# 
  1349  0110                     	;# 
  1350  0111                     	;# 
  1351  0112                     	;# 
  1352  0113                     	;# 
  1353  0114                     	;# 
  1354  0115                     	;# 
  1355  0116                     	;# 
  1356  0117                     	;# 
  1357  0118                     	;# 
  1358  0119                     	;# 
  1359  011A                     	;# 
  1360  011B                     	;# 
  1361  011B                     	;# 
  1362  011C                     	;# 
  1363  018C                     	;# 
  1364  018D                     	;# 
  1365  018E                     	;# 
  1366  018F                     	;# 
  1367  0190                     	;# 
  1368  0191                     	;# 
  1369  0191                     	;# 
  1370  0192                     	;# 
  1371  0193                     	;# 
  1372  0193                     	;# 
  1373  0194                     	;# 
  1374  0195                     	;# 
  1375  0196                     	;# 
  1376  0197                     	;# 
  1377  0199                     	;# 
  1378  0199                     	;# 
  1379  0199                     	;# 
  1380  019A                     	;# 
  1381  019A                     	;# 
  1382  019A                     	;# 
  1383  019B                     	;# 
  1384  019B                     	;# 
  1385  019B                     	;# 
  1386  019B                     	;# 
  1387  019B                     	;# 
  1388  019C                     	;# 
  1389  019C                     	;# 
  1390  019C                     	;# 
  1391  019D                     	;# 
  1392  019D                     	;# 
  1393  019D                     	;# 
  1394  019E                     	;# 
  1395  019E                     	;# 
  1396  019E                     	;# 
  1397  019F                     	;# 
  1398  019F                     	;# 
  1399  019F                     	;# 
  1400  019F                     	;# 
  1401  019F                     	;# 
  1402  020C                     	;# 
  1403  020D                     	;# 
  1404  020E                     	;# 
  1405  020F                     	;# 
  1406  0210                     	;# 
  1407  0211                     	;# 
  1408  0211                     	;# 
  1409  0212                     	;# 
  1410  0212                     	;# 
  1411  0213                     	;# 
  1412  0213                     	;# 
  1413  0214                     	;# 
  1414  0214                     	;# 
  1415  0215                     	;# 
  1416  0215                     	;# 
  1417  0215                     	;# 
  1418  0215                     	;# 
  1419  0216                     	;# 
  1420  0216                     	;# 
  1421  0217                     	;# 
  1422  0217                     	;# 
  1423  028C                     	;# 
  1424  028D                     	;# 
  1425  028E                     	;# 
  1426  028F                     	;# 
  1427  0290                     	;# 
  1428  0291                     	;# 
  1429  0291                     	;# 
  1430  0292                     	;# 
  1431  0293                     	;# 
  1432  0293                     	;# 
  1433  0298                     	;# 
  1434  0298                     	;# 
  1435  0299                     	;# 
  1436  029A                     	;# 
  1437  029A                     	;# 
  1438  029E                     	;# 
  1439  030C                     	;# 
  1440  030D                     	;# 
  1441  030E                     	;# 
  1442  030F                     	;# 
  1443  0310                     	;# 
  1444  038C                     	;# 
  1445  038D                     	;# 
  1446  038E                     	;# 
  1447  038F                     	;# 
  1448  0390                     	;# 
  1449  0391                     	;# 
  1450  0392                     	;# 
  1451  0393                     	;# 
  1452  0394                     	;# 
  1453  0395                     	;# 
  1454  0396                     	;# 
  1455  0397                     	;# 
  1456  0398                     	;# 
  1457  0399                     	;# 
  1458  039D                     	;# 
  1459  039E                     	;# 
  1460  039F                     	;# 
  1461  0415                     	;# 
  1462  0416                     	;# 
  1463  0417                     	;# 
  1464  041C                     	;# 
  1465  041D                     	;# 
  1466  041E                     	;# 
  1467  0498                     	;# 
  1468  0498                     	;# 
  1469  0499                     	;# 
  1470  049A                     	;# 
  1471  049B                     	;# 
  1472  049B                     	;# 
  1473  049C                     	;# 
  1474  049D                     	;# 
  1475  049E                     	;# 
  1476  049F                     	;# 
  1477  0511                     	;# 
  1478  0515                     	;# 
  1479  0617                     	;# 
  1480  0618                     	;# 
  1481  0619                     	;# 
  1482  0619                     	;# 
  1483  061A                     	;# 
  1484  061B                     	;# 
  1485  061C                     	;# 
  1486  061C                     	;# 
  1487  0691                     	;# 
  1488  0692                     	;# 
  1489  0693                     	;# 
  1490  0694                     	;# 
  1491  0695                     	;# 
  1492  0696                     	;# 
  1493  0697                     	;# 
  1494  0698                     	;# 
  1495  0699                     	;# 
  1496  069A                     	;# 
  1497  069B                     	;# 
  1498  069C                     	;# 
  1499  069D                     	;# 
  1500  069E                     	;# 
  1501  069F                     	;# 
  1502  0E0F                     	;# 
  1503  0E10                     	;# 
  1504  0E11                     	;# 
  1505  0E12                     	;# 
  1506  0E13                     	;# 
  1507  0E14                     	;# 
  1508  0E15                     	;# 
  1509  0E17                     	;# 
  1510  0E20                     	;# 
  1511  0E21                     	;# 
  1512  0E22                     	;# 
  1513  0E24                     	;# 
  1514  0E25                     	;# 
  1515  0E28                     	;# 
  1516  0E29                     	;# 
  1517  0E2A                     	;# 
  1518  0E2B                     	;# 
  1519  0E90                     	;# 
  1520  0E91                     	;# 
  1521  0E92                     	;# 
  1522  0E93                     	;# 
  1523  0E94                     	;# 
  1524  0E95                     	;# 
  1525  0E96                     	;# 
  1526  0E97                     	;# 
  1527  0E98                     	;# 
  1528  0E99                     	;# 
  1529  0E9A                     	;# 
  1530  0E9B                     	;# 
  1531  0E9C                     	;# 
  1532  0E9D                     	;# 
  1533  0E9E                     	;# 
  1534  0E9F                     	;# 
  1535  0EA0                     	;# 
  1536  0EA1                     	;# 
  1537  0EA2                     	;# 
  1538  0EA3                     	;# 
  1539  0EA4                     	;# 
  1540  0EA5                     	;# 
  1541  0EA6                     	;# 
  1542  0EA7                     	;# 
  1543  0EA8                     	;# 
  1544  0EA9                     	;# 
  1545  0EAA                     	;# 
  1546  0EAB                     	;# 
  1547  0EAC                     	;# 
  1548  0EAD                     	;# 
  1549  0EAE                     	;# 
  1550  0EAF                     	;# 
  1551  0EB0                     	;# 
  1552  0EB1                     	;# 
  1553  0EB2                     	;# 
  1554  0F0F                     	;# 
  1555  0F10                     	;# 
  1556  0F11                     	;# 
  1557  0F12                     	;# 
  1558  0F13                     	;# 
  1559  0F14                     	;# 
  1560  0F15                     	;# 
  1561  0F16                     	;# 
  1562  0F17                     	;# 
  1563  0F18                     	;# 
  1564  0F19                     	;# 
  1565  0F1A                     	;# 
  1566  0F1B                     	;# 
  1567  0F1C                     	;# 
  1568  0F1D                     	;# 
  1569  0F1E                     	;# 
  1570  0F1F                     	;# 
  1571  0F20                     	;# 
  1572  0F21                     	;# 
  1573  0F22                     	;# 
  1574  0F23                     	;# 
  1575  0F24                     	;# 
  1576  0F25                     	;# 
  1577  0F26                     	;# 
  1578  0F27                     	;# 
  1579  0F28                     	;# 
  1580  0F29                     	;# 
  1581  0F2A                     	;# 
  1582  0F2B                     	;# 
  1583  0F2C                     	;# 
  1584  0F2D                     	;# 
  1585  0F2E                     	;# 
  1586  0F2F                     	;# 
  1587  0F30                     	;# 
  1588  0F31                     	;# 
  1589  0F32                     	;# 
  1590  0F33                     	;# 
  1591  0F34                     	;# 
  1592  0F35                     	;# 
  1593  0F36                     	;# 
  1594  0F37                     	;# 
  1595  0FE4                     	;# 
  1596  0FE5                     	;# 
  1597  0FE6                     	;# 
  1598  0FE7                     	;# 
  1599  0FE8                     	;# 
  1600  0FE9                     	;# 
  1601  0FEA                     	;# 
  1602  0FEB                     	;# 
  1603  0FED                     	;# 
  1604  0FEE                     	;# 
  1605  0FEF                     	;# 
  1606                           
  1607                           	psect	nvCOMMON
  1608  0076                     __pnvCOMMON:
  1609  0076                     _ADC_InterruptHandler:
  1610  0076                     	ds	2
  1611  000B                     _INTCONbits	set	11
  1612  0011                     _PIR1bits	set	17
  1613  0095                     _OPTION_REGbits	set	149
  1614  008F                     _TRISD	set	143
  1615  008E                     _TRISC	set	142
  1616  008D                     _TRISB	set	141
  1617  008C                     _TRISA	set	140
  1618  0090                     _TRISE	set	144
  1619  0097                     _WDTCON	set	151
  1620  0098                     _OSCTUNE	set	152
  1621  0099                     _OSCCON	set	153
  1622  009D                     _ADCON0bits	set	157
  1623  0091                     _PIE1bits	set	145
  1624  009D                     _ADCON0	set	157
  1625  009C                     _ADRESH	set	156
  1626  009B                     _ADRESL	set	155
  1627  009F                     _ADCON2	set	159
  1628  009E                     _ADCON1	set	158
  1629  010D                     _LATBbits	set	269
  1630  010E                     _LATC	set	270
  1631  010D                     _LATB	set	269
  1632  010C                     _LATA	set	268
  1633  010F                     _LATD	set	271
  1634  0110                     _LATE	set	272
  1635  0116                     _BORCON	set	278
  1636  018C                     _ANSELA	set	396
  1637  0190                     _ANSELE	set	400
  1638  018D                     _ANSELB	set	397
  1639  018E                     _ANSELC	set	398
  1640  018F                     _ANSELD	set	399
  1641  020E                     _WPUC	set	526
  1642  020C                     _WPUA	set	524
  1643  020D                     _WPUB	set	525
  1644  0210                     _WPUE	set	528
  1645  020F                     _WPUD	set	527
  1646  028F                     _ODCOND	set	655
  1647  028E                     _ODCONC	set	654
  1648  028D                     _ODCONB	set	653
  1649  028C                     _ODCONA	set	652
  1650  0290                     _ODCONE	set	656
  1651  0310                     _SLRCONE	set	784
  1652  030F                     _SLRCOND	set	783
  1653  030E                     _SLRCONC	set	782
  1654  030D                     _SLRCONB	set	781
  1655  030C                     _SLRCONA	set	780
  1656  0390                     _INLVLE	set	912
  1657  038F                     _INLVLD	set	911
  1658  038E                     _INLVLC	set	910
  1659  038D                     _INLVLB	set	909
  1660  038C                     _INLVLA	set	908
  1661                           
  1662                           	psect	cinit
  1663  0028                     start_initialization:	
  1664                           ; #config settings
  1665                           
  1666  0028                     __initialization:
  1667  0028                     end_of_initialization:	
  1668                           ;End of C runtime variable initialization code
  1669                           
  1670  0028                     __end_of__initialization:
  1671  0028  107E               	bcf	int$flags,0	;clear compiler interrupt flag (level 1)
  1672  0029  0020               	movlb	0
  1673  002A  3180  286E         	ljmp	_main	;jump to C main() function
  1674                           
  1675                           	psect	cstackCOMMON
  1676  0070                     __pcstackCOMMON:
  1677  0070                     ?_ADC_SetInterruptHandler:
  1678  0070                     ?_ADC_DefaultInterruptHandler:	
  1679                           ; 1 bytes @ 0x0
  1680                           
  1681  0070                     ??_ADC_DefaultInterruptHandler:	
  1682                           ; 1 bytes @ 0x0
  1683                           
  1684  0070                     ?_PIN_MANAGER_Initialize:	
  1685                           ; 1 bytes @ 0x0
  1686                           
  1687  0070                     ??_PIN_MANAGER_Initialize:	
  1688                           ; 1 bytes @ 0x0
  1689                           
  1690  0070                     ?_OSCILLATOR_Initialize:	
  1691                           ; 1 bytes @ 0x0
  1692                           
  1693  0070                     ??_OSCILLATOR_Initialize:	
  1694                           ; 1 bytes @ 0x0
  1695                           
  1696  0070                     ?_WDT_Initialize:	
  1697                           ; 1 bytes @ 0x0
  1698                           
  1699  0070                     ??_WDT_Initialize:	
  1700                           ; 1 bytes @ 0x0
  1701                           
  1702  0070                     ?_ADC_Initialize:	
  1703                           ; 1 bytes @ 0x0
  1704                           
  1705  0070                     ?_ADC_ISR:	
  1706                           ; 1 bytes @ 0x0
  1707                           
  1708  0070                     ??_ADC_ISR:	
  1709                           ; 1 bytes @ 0x0
  1710                           
  1711  0070                     ?_SYSTEM_Initialize:	
  1712                           ; 1 bytes @ 0x0
  1713                           
  1714  0070                     ?_PIN_MANAGER_IOC:	
  1715                           ; 1 bytes @ 0x0
  1716                           
  1717  0070                     ??_PIN_MANAGER_IOC:	
  1718                           ; 1 bytes @ 0x0
  1719                           
  1720  0070                     ?_main:	
  1721                           ; 1 bytes @ 0x0
  1722                           
  1723  0070                     ?_INTERRUPT_InterruptManager:	
  1724                           ; 1 bytes @ 0x0
  1725                           
  1726  0070                     ??_INTERRUPT_InterruptManager:	
  1727                           ; 1 bytes @ 0x0
  1728                           
  1729  0070                     ?_ADC_GetConversion:	
  1730                           ; 1 bytes @ 0x0
  1731                           
  1732  0070                     ADC_SetInterruptHandler@InterruptHandler:	
  1733                           ; 2 bytes @ 0x0
  1734                           
  1735                           
  1736                           ; 2 bytes @ 0x0
  1737  0070                     	ds	2
  1738  0072                     ??_ADC_SetInterruptHandler:
  1739  0072                     ??_ADC_Initialize:	
  1740                           ; 1 bytes @ 0x2
  1741                           
  1742  0072                     ??_ADC_GetConversion:	
  1743                           ; 1 bytes @ 0x2
  1744                           
  1745  0072                     ??_SYSTEM_Initialize:	
  1746                           ; 1 bytes @ 0x2
  1747                           
  1748                           
  1749                           ; 1 bytes @ 0x2
  1750  0072                     	ds	1
  1751  0073                     ADC_GetConversion@channel:
  1752                           
  1753                           ; 1 bytes @ 0x3
  1754  0073                     	ds	1
  1755  0074                     ??_main:
  1756  0074                     main@resultado:	
  1757                           ; 1 bytes @ 0x4
  1758                           
  1759                           
  1760                           ; 2 bytes @ 0x4
  1761  0074                     	ds	2
  1762                           
  1763                           	psect	maintext
  1764  006E                     __pmaintext:	
  1765 ;;
  1766 ;;Main: autosize = 0, tempsize = 0, incstack = 0, save=0
  1767 ;;
  1768 ;; *************** function _main *****************
  1769 ;; Defined at:
  1770 ;;		line 49 in file "main.c"
  1771 ;; Parameters:    Size  Location     Type
  1772 ;;		None
  1773 ;; Auto vars:     Size  Location     Type
  1774 ;;  resultado       2    4[COMMON] unsigned short 
  1775 ;; Return value:  Size  Location     Type
  1776 ;;                  1    wreg      void 
  1777 ;; Registers used:
  1778 ;;		wreg, status,2, status,0, pclath, cstack
  1779 ;; Tracked objects:
  1780 ;;		On entry : B1F/0
  1781 ;;		On exit  : 0/0
  1782 ;;		Unchanged: 0/0
  1783 ;; Data sizes:     COMMON   BANK0   BANK1   BANK2   BANK3   BANK4   BANK5   BANK6   BANK7   BANK8   BANK9  BANK10  BANK1
      +1  BANK12
  1784 ;;      Params:         0       0       0       0       0       0       0       0       0       0       0       0       
      +0       0
  1785 ;;      Locals:         2       0       0       0       0       0       0       0       0       0       0       0       
      +0       0
  1786 ;;      Temps:          0       0       0       0       0       0       0       0       0       0       0       0       
      +0       0
  1787 ;;      Totals:         2       0       0       0       0       0       0       0       0       0       0       0       
      +0       0
  1788 ;;Total ram usage:        2 bytes
  1789 ;; Hardware stack levels required when called:    6
  1790 ;; This function calls:
  1791 ;;		_ADC_GetConversion
  1792 ;;		_ADC_Initialize
  1793 ;;		_SYSTEM_Initialize
  1794 ;; This function is called by:
  1795 ;;		Startup code after reset
  1796 ;; This function uses a non-reentrant model
  1797 ;;
  1798                           
  1799                           
  1800                           ;psect for function _main
  1801  006E                     _main:
  1802  006E                     l881:	
  1803                           ;incstack = 0
  1804                           ; Regs used in _main: [wreg+status,2+status,0+pclath+cstack]
  1805                           
  1806                           
  1807                           ;main.c: 52:     SYSTEM_Initialize();
  1808  006E  3180  20CD  3180   	fcall	_SYSTEM_Initialize
  1809  0071                     l883:
  1810                           
  1811                           ;main.c: 58:     (INTCONbits.GIE = 1);
  1812  0071  178B               	bsf	11,7	;volatile
  1813  0072                     l885:
  1814                           
  1815                           ;main.c: 61:     (INTCONbits.PEIE = 1);
  1816  0072  170B               	bsf	11,6	;volatile
  1817  0073                     l178:	
  1818                           ;main.c: 63:     adc_result_t resultado;;main.c: 70:     while (1)
  1819                           
  1820                           
  1821                           ;main.c: 71:     {;main.c: 72:         ADC_Initialize();
  1822  0073  3180  20AF  3180   	fcall	_ADC_Initialize
  1823                           
  1824                           ;main.c: 74:         resultado = ADC_GetConversion(channel_AN0);
  1825  0076  3000               	movlw	0
  1826  0077  3180  2098  3180   	fcall	_ADC_GetConversion
  1827  007A  0871               	movf	?_ADC_GetConversion+1,w
  1828  007B  00F5               	movwf	main@resultado+1
  1829  007C  0870               	movf	?_ADC_GetConversion,w
  1830  007D  00F4               	movwf	main@resultado
  1831  007E                     l887:
  1832                           
  1833                           ;main.c: 76:         if (resultado > 0xCC) {
  1834  007E  3000               	movlw	0
  1835  007F  0275               	subwf	main@resultado+1,w
  1836  0080  30CD               	movlw	205
  1837  0081  1903               	skipnz
  1838  0082  0274               	subwf	main@resultado,w
  1839  0083  1C03               	skipc
  1840  0084  2886               	goto	u111
  1841  0085  2887               	goto	u110
  1842  0086                     u111:
  1843  0086  288A               	goto	l889
  1844  0087                     u110:
  1845  0087                     l180:	
  1846                           ;main.c: 77:             do { LATBbits.LATB0 = 1; } while(0);
  1847                           
  1848  0087  0022               	movlb	2	; select bank2
  1849  0088  140D               	bsf	13,0	;volatile
  1850  0089  2873               	goto	l178
  1851  008A                     l889:
  1852  008A  3000               	movlw	0
  1853  008B  0275               	subwf	main@resultado+1,w
  1854  008C  30CD               	movlw	205
  1855  008D  1903               	skipnz
  1856  008E  0274               	subwf	main@resultado,w
  1857  008F  1803               	skipnc
  1858  0090  2892               	goto	u121
  1859  0091  2893               	goto	u120
  1860  0092                     u121:
  1861  0092  2873               	goto	l178
  1862  0093                     u120:
  1863  0093                     l184:	
  1864                           ;main.c: 80:             do { LATBbits.LATB0 = 0; } while(0);
  1865                           
  1866  0093  0022               	movlb	2	; select bank2
  1867  0094  100D               	bcf	13,0	;volatile
  1868  0095  2873               	goto	l178
  1869  0096  3180  2826         	ljmp	start
  1870  0098                     __end_of_main:
  1871                           
  1872                           	psect	text1
  1873  00CD                     __ptext1:	
  1874 ;; *************** function _SYSTEM_Initialize *****************
  1875 ;; Defined at:
  1876 ;;		line 50 in file "mcc_generated_files/mcc.c"
  1877 ;; Parameters:    Size  Location     Type
  1878 ;;		None
  1879 ;; Auto vars:     Size  Location     Type
  1880 ;;		None
  1881 ;; Return value:  Size  Location     Type
  1882 ;;                  1    wreg      void 
  1883 ;; Registers used:
  1884 ;;		wreg, status,2, status,0, pclath, cstack
  1885 ;; Tracked objects:
  1886 ;;		On entry : 0/0
  1887 ;;		On exit  : 0/0
  1888 ;;		Unchanged: 0/0
  1889 ;; Data sizes:     COMMON   BANK0   BANK1   BANK2   BANK3   BANK4   BANK5   BANK6   BANK7   BANK8   BANK9  BANK10  BANK1
      +1  BANK12
  1890 ;;      Params:         0       0       0       0       0       0       0       0       0       0       0       0       
      +0       0
  1891 ;;      Locals:         0       0       0       0       0       0       0       0       0       0       0       0       
      +0       0
  1892 ;;      Temps:          0       0       0       0       0       0       0       0       0       0       0       0       
      +0       0
  1893 ;;      Totals:         0       0       0       0       0       0       0       0       0       0       0       0       
      +0       0
  1894 ;;Total ram usage:        0 bytes
  1895 ;; Hardware stack levels used:    1
  1896 ;; Hardware stack levels required when called:    5
  1897 ;; This function calls:
  1898 ;;		_ADC_Initialize
  1899 ;;		_OSCILLATOR_Initialize
  1900 ;;		_PIN_MANAGER_Initialize
  1901 ;;		_WDT_Initialize
  1902 ;; This function is called by:
  1903 ;;		_main
  1904 ;; This function uses a non-reentrant model
  1905 ;;
  1906                           
  1907                           
  1908                           ;psect for function _SYSTEM_Initialize
  1909  00CD                     _SYSTEM_Initialize:
  1910  00CD                     l879:	
  1911                           ;incstack = 0
  1912                           ; Regs used in _SYSTEM_Initialize: [wreg+status,2+status,0+pclath+cstack]
  1913                           
  1914                           
  1915                           ;mcc_generated_files/mcc.c: 53:     PIN_MANAGER_Initialize();
  1916  00CD  3180  202C  3180   	fcall	_PIN_MANAGER_Initialize
  1917                           
  1918                           ;mcc_generated_files/mcc.c: 54:     OSCILLATOR_Initialize();
  1919  00D0  3180  20DA  3180   	fcall	_OSCILLATOR_Initialize
  1920                           
  1921                           ;mcc_generated_files/mcc.c: 55:     WDT_Initialize();
  1922  00D3  3180  20E6  3180   	fcall	_WDT_Initialize
  1923                           
  1924                           ;mcc_generated_files/mcc.c: 56:     ADC_Initialize();
  1925  00D6  3180  20AF  3180   	fcall	_ADC_Initialize
  1926  00D9                     l77:
  1927  00D9  0008               	return
  1928  00DA                     __end_of_SYSTEM_Initialize:
  1929                           
  1930                           	psect	text2
  1931  00E6                     __ptext2:	
  1932 ;; *************** function _WDT_Initialize *****************
  1933 ;; Defined at:
  1934 ;;		line 69 in file "mcc_generated_files/mcc.c"
  1935 ;; Parameters:    Size  Location     Type
  1936 ;;		None
  1937 ;; Auto vars:     Size  Location     Type
  1938 ;;		None
  1939 ;; Return value:  Size  Location     Type
  1940 ;;                  1    wreg      void 
  1941 ;; Registers used:
  1942 ;;		wreg
  1943 ;; Tracked objects:
  1944 ;;		On entry : 0/0
  1945 ;;		On exit  : 0/0
  1946 ;;		Unchanged: 0/0
  1947 ;; Data sizes:     COMMON   BANK0   BANK1   BANK2   BANK3   BANK4   BANK5   BANK6   BANK7   BANK8   BANK9  BANK10  BANK1
      +1  BANK12
  1948 ;;      Params:         0       0       0       0       0       0       0       0       0       0       0       0       
      +0       0
  1949 ;;      Locals:         0       0       0       0       0       0       0       0       0       0       0       0       
      +0       0
  1950 ;;      Temps:          0       0       0       0       0       0       0       0       0       0       0       0       
      +0       0
  1951 ;;      Totals:         0       0       0       0       0       0       0       0       0       0       0       0       
      +0       0
  1952 ;;Total ram usage:        0 bytes
  1953 ;; Hardware stack levels used:    1
  1954 ;; Hardware stack levels required when called:    3
  1955 ;; This function calls:
  1956 ;;		Nothing
  1957 ;; This function is called by:
  1958 ;;		_SYSTEM_Initialize
  1959 ;; This function uses a non-reentrant model
  1960 ;;
  1961                           
  1962                           
  1963                           ;psect for function _WDT_Initialize
  1964  00E6                     _WDT_Initialize:
  1965  00E6                     l797:	
  1966                           ;incstack = 0
  1967                           ; Regs used in _WDT_Initialize: [wreg]
  1968                           
  1969                           
  1970                           ;mcc_generated_files/mcc.c: 72:     WDTCON = 0x16;
  1971  00E6  3016               	movlw	22
  1972  00E7  0021               	movlb	1	; select bank1
  1973  00E8  0097               	movwf	23	;volatile
  1974  00E9                     l83:
  1975  00E9  0008               	return
  1976  00EA                     __end_of_WDT_Initialize:
  1977                           
  1978                           	psect	text3
  1979  002C                     __ptext3:	
  1980 ;; *************** function _PIN_MANAGER_Initialize *****************
  1981 ;; Defined at:
  1982 ;;		line 55 in file "mcc_generated_files/pin_manager.c"
  1983 ;; Parameters:    Size  Location     Type
  1984 ;;		None
  1985 ;; Auto vars:     Size  Location     Type
  1986 ;;		None
  1987 ;; Return value:  Size  Location     Type
  1988 ;;                  1    wreg      void 
  1989 ;; Registers used:
  1990 ;;		wreg, status,2
  1991 ;; Tracked objects:
  1992 ;;		On entry : 0/0
  1993 ;;		On exit  : 0/0
  1994 ;;		Unchanged: 0/0
  1995 ;; Data sizes:     COMMON   BANK0   BANK1   BANK2   BANK3   BANK4   BANK5   BANK6   BANK7   BANK8   BANK9  BANK10  BANK1
      +1  BANK12
  1996 ;;      Params:         0       0       0       0       0       0       0       0       0       0       0       0       
      +0       0
  1997 ;;      Locals:         0       0       0       0       0       0       0       0       0       0       0       0       
      +0       0
  1998 ;;      Temps:          0       0       0       0       0       0       0       0       0       0       0       0       
      +0       0
  1999 ;;      Totals:         0       0       0       0       0       0       0       0       0       0       0       0       
      +0       0
  2000 ;;Total ram usage:        0 bytes
  2001 ;; Hardware stack levels used:    1
  2002 ;; Hardware stack levels required when called:    3
  2003 ;; This function calls:
  2004 ;;		Nothing
  2005 ;; This function is called by:
  2006 ;;		_SYSTEM_Initialize
  2007 ;; This function uses a non-reentrant model
  2008 ;;
  2009                           
  2010                           
  2011                           ;psect for function _PIN_MANAGER_Initialize
  2012  002C                     _PIN_MANAGER_Initialize:
  2013  002C                     l745:	
  2014                           ;incstack = 0
  2015                           ; Regs used in _PIN_MANAGER_Initialize: [wreg+status,2]
  2016                           
  2017                           
  2018                           ;mcc_generated_files/pin_manager.c: 60:     LATE = 0x00;
  2019  002C  0022               	movlb	2	; select bank2
  2020  002D  0190               	clrf	16	;volatile
  2021                           
  2022                           ;mcc_generated_files/pin_manager.c: 61:     LATD = 0x00;
  2023  002E  018F               	clrf	15	;volatile
  2024                           
  2025                           ;mcc_generated_files/pin_manager.c: 62:     LATA = 0x00;
  2026  002F  018C               	clrf	12	;volatile
  2027                           
  2028                           ;mcc_generated_files/pin_manager.c: 63:     LATB = 0x00;
  2029  0030  018D               	clrf	13	;volatile
  2030                           
  2031                           ;mcc_generated_files/pin_manager.c: 64:     LATC = 0x00;
  2032  0031  018E               	clrf	14	;volatile
  2033  0032                     l747:
  2034                           
  2035                           ;mcc_generated_files/pin_manager.c: 69:     TRISE = 0x0F;
  2036  0032  300F               	movlw	15
  2037  0033  0021               	movlb	1	; select bank1
  2038  0034  0090               	movwf	16	;volatile
  2039  0035                     l749:
  2040                           
  2041                           ;mcc_generated_files/pin_manager.c: 70:     TRISA = 0xFF;
  2042  0035  30FF               	movlw	255
  2043  0036  008C               	movwf	12	;volatile
  2044  0037                     l751:
  2045                           
  2046                           ;mcc_generated_files/pin_manager.c: 71:     TRISB = 0xF8;
  2047  0037  30F8               	movlw	248
  2048  0038  008D               	movwf	13	;volatile
  2049  0039                     l753:
  2050                           
  2051                           ;mcc_generated_files/pin_manager.c: 72:     TRISC = 0xFF;
  2052  0039  30FF               	movlw	255
  2053  003A  008E               	movwf	14	;volatile
  2054  003B                     l755:
  2055                           
  2056                           ;mcc_generated_files/pin_manager.c: 73:     TRISD = 0xFF;
  2057  003B  30FF               	movlw	255
  2058  003C  008F               	movwf	15	;volatile
  2059  003D                     l757:
  2060                           
  2061                           ;mcc_generated_files/pin_manager.c: 78:     ANSELD = 0xFF;
  2062  003D  30FF               	movlw	255
  2063  003E  0023               	movlb	3	; select bank3
  2064  003F  008F               	movwf	15	;volatile
  2065  0040                     l759:
  2066                           
  2067                           ;mcc_generated_files/pin_manager.c: 79:     ANSELC = 0xFC;
  2068  0040  30FC               	movlw	252
  2069  0041  008E               	movwf	14	;volatile
  2070  0042                     l761:
  2071                           
  2072                           ;mcc_generated_files/pin_manager.c: 80:     ANSELB = 0x3F;
  2073  0042  303F               	movlw	63
  2074  0043  008D               	movwf	13	;volatile
  2075  0044                     l763:
  2076                           
  2077                           ;mcc_generated_files/pin_manager.c: 81:     ANSELE = 0x07;
  2078  0044  3007               	movlw	7
  2079  0045  0090               	movwf	16	;volatile
  2080  0046                     l765:
  2081                           
  2082                           ;mcc_generated_files/pin_manager.c: 82:     ANSELA = 0x3F;
  2083  0046  303F               	movlw	63
  2084  0047  008C               	movwf	12	;volatile
  2085                           
  2086                           ;mcc_generated_files/pin_manager.c: 87:     WPUD = 0x00;
  2087  0048  0024               	movlb	4	; select bank4
  2088  0049  018F               	clrf	15	;volatile
  2089                           
  2090                           ;mcc_generated_files/pin_manager.c: 88:     WPUE = 0x00;
  2091  004A  0190               	clrf	16	;volatile
  2092                           
  2093                           ;mcc_generated_files/pin_manager.c: 89:     WPUB = 0x00;
  2094  004B  018D               	clrf	13	;volatile
  2095                           
  2096                           ;mcc_generated_files/pin_manager.c: 90:     WPUA = 0x00;
  2097  004C  018C               	clrf	12	;volatile
  2098                           
  2099                           ;mcc_generated_files/pin_manager.c: 91:     WPUC = 0x00;
  2100  004D  018E               	clrf	14	;volatile
  2101  004E                     l767:
  2102                           
  2103                           ;mcc_generated_files/pin_manager.c: 92:     OPTION_REGbits.nWPUEN = 1;
  2104  004E  0021               	movlb	1	; select bank1
  2105  004F  1795               	bsf	21,7	;volatile
  2106                           
  2107                           ;mcc_generated_files/pin_manager.c: 97:     ODCONE = 0x00;
  2108  0050  0025               	movlb	5	; select bank5
  2109  0051  0190               	clrf	16	;volatile
  2110                           
  2111                           ;mcc_generated_files/pin_manager.c: 98:     ODCONA = 0x00;
  2112  0052  018C               	clrf	12	;volatile
  2113                           
  2114                           ;mcc_generated_files/pin_manager.c: 99:     ODCONB = 0x00;
  2115  0053  018D               	clrf	13	;volatile
  2116                           
  2117                           ;mcc_generated_files/pin_manager.c: 100:     ODCONC = 0x00;
  2118  0054  018E               	clrf	14	;volatile
  2119                           
  2120                           ;mcc_generated_files/pin_manager.c: 101:     ODCOND = 0x00;
  2121  0055  018F               	clrf	15	;volatile
  2122  0056                     l769:
  2123                           
  2124                           ;mcc_generated_files/pin_manager.c: 106:     SLRCONA = 0xFF;
  2125  0056  30FF               	movlw	255
  2126  0057  0026               	movlb	6	; select bank6
  2127  0058  008C               	movwf	12	;volatile
  2128  0059                     l771:
  2129                           
  2130                           ;mcc_generated_files/pin_manager.c: 107:     SLRCONB = 0xFF;
  2131  0059  30FF               	movlw	255
  2132  005A  008D               	movwf	13	;volatile
  2133  005B                     l773:
  2134                           
  2135                           ;mcc_generated_files/pin_manager.c: 108:     SLRCONC = 0xFF;
  2136  005B  30FF               	movlw	255
  2137  005C  008E               	movwf	14	;volatile
  2138  005D                     l775:
  2139                           
  2140                           ;mcc_generated_files/pin_manager.c: 109:     SLRCOND = 0xFF;
  2141  005D  30FF               	movlw	255
  2142  005E  008F               	movwf	15	;volatile
  2143  005F                     l777:
  2144                           
  2145                           ;mcc_generated_files/pin_manager.c: 110:     SLRCONE = 0x07;
  2146  005F  3007               	movlw	7
  2147  0060  0090               	movwf	16	;volatile
  2148  0061                     l779:
  2149                           
  2150                           ;mcc_generated_files/pin_manager.c: 115:     INLVLA = 0xFF;
  2151  0061  30FF               	movlw	255
  2152  0062  0027               	movlb	7	; select bank7
  2153  0063  008C               	movwf	12	;volatile
  2154  0064                     l781:
  2155                           
  2156                           ;mcc_generated_files/pin_manager.c: 116:     INLVLB = 0xFF;
  2157  0064  30FF               	movlw	255
  2158  0065  008D               	movwf	13	;volatile
  2159  0066                     l783:
  2160                           
  2161                           ;mcc_generated_files/pin_manager.c: 117:     INLVLC = 0xFF;
  2162  0066  30FF               	movlw	255
  2163  0067  008E               	movwf	14	;volatile
  2164  0068                     l785:
  2165                           
  2166                           ;mcc_generated_files/pin_manager.c: 118:     INLVLD = 0xFF;
  2167  0068  30FF               	movlw	255
  2168  0069  008F               	movwf	15	;volatile
  2169  006A                     l787:
  2170                           
  2171                           ;mcc_generated_files/pin_manager.c: 119:     INLVLE = 0x0F;
  2172  006A  300F               	movlw	15
  2173  006B  0090               	movwf	16	;volatile
  2174  006C                     l789:
  2175                           
  2176                           ;mcc_generated_files/pin_manager.c: 127:     INTCONbits.IOCIE = 1;
  2177  006C  158B               	bsf	11,3	;volatile
  2178  006D                     l160:
  2179  006D  0008               	return
  2180  006E                     __end_of_PIN_MANAGER_Initialize:
  2181                           
  2182                           	psect	text4
  2183  00DA                     __ptext4:	
  2184 ;; *************** function _OSCILLATOR_Initialize *****************
  2185 ;; Defined at:
  2186 ;;		line 59 in file "mcc_generated_files/mcc.c"
  2187 ;; Parameters:    Size  Location     Type
  2188 ;;		None
  2189 ;; Auto vars:     Size  Location     Type
  2190 ;;		None
  2191 ;; Return value:  Size  Location     Type
  2192 ;;                  1    wreg      void 
  2193 ;; Registers used:
  2194 ;;		wreg, status,2
  2195 ;; Tracked objects:
  2196 ;;		On entry : 0/0
  2197 ;;		On exit  : 0/0
  2198 ;;		Unchanged: 0/0
  2199 ;; Data sizes:     COMMON   BANK0   BANK1   BANK2   BANK3   BANK4   BANK5   BANK6   BANK7   BANK8   BANK9  BANK10  BANK1
      +1  BANK12
  2200 ;;      Params:         0       0       0       0       0       0       0       0       0       0       0       0       
      +0       0
  2201 ;;      Locals:         0       0       0       0       0       0       0       0       0       0       0       0       
      +0       0
  2202 ;;      Temps:          0       0       0       0       0       0       0       0       0       0       0       0       
      +0       0
  2203 ;;      Totals:         0       0       0       0       0       0       0       0       0       0       0       0       
      +0       0
  2204 ;;Total ram usage:        0 bytes
  2205 ;; Hardware stack levels used:    1
  2206 ;; Hardware stack levels required when called:    3
  2207 ;; This function calls:
  2208 ;;		Nothing
  2209 ;; This function is called by:
  2210 ;;		_SYSTEM_Initialize
  2211 ;; This function uses a non-reentrant model
  2212 ;;
  2213                           
  2214                           
  2215                           ;psect for function _OSCILLATOR_Initialize
  2216  00DA                     _OSCILLATOR_Initialize:
  2217  00DA                     l791:	
  2218                           ;incstack = 0
  2219                           ; Regs used in _OSCILLATOR_Initialize: [wreg+status,2]
  2220                           
  2221                           
  2222                           ;mcc_generated_files/mcc.c: 62:     OSCCON = 0x38;
  2223  00DA  3038               	movlw	56
  2224  00DB  0021               	movlb	1	; select bank1
  2225  00DC  0099               	movwf	25	;volatile
  2226  00DD                     l793:
  2227                           
  2228                           ;mcc_generated_files/mcc.c: 64:     OSCTUNE = 0x00;
  2229  00DD  0198               	clrf	24	;volatile
  2230  00DE                     l795:
  2231                           
  2232                           ;mcc_generated_files/mcc.c: 66:     BORCON = 0x00;
  2233  00DE  0022               	movlb	2	; select bank2
  2234  00DF  0196               	clrf	22	;volatile
  2235  00E0                     l80:
  2236  00E0  0008               	return
  2237  00E1                     __end_of_OSCILLATOR_Initialize:
  2238                           
  2239                           	psect	text5
  2240  00AF                     __ptext5:	
  2241 ;; *************** function _ADC_Initialize *****************
  2242 ;; Defined at:
  2243 ;;		line 67 in file "mcc_generated_files/adc.c"
  2244 ;; Parameters:    Size  Location     Type
  2245 ;;		None
  2246 ;; Auto vars:     Size  Location     Type
  2247 ;;		None
  2248 ;; Return value:  Size  Location     Type
  2249 ;;                  1    wreg      void 
  2250 ;; Registers used:
  2251 ;;		wreg, status,2, status,0, pclath, cstack
  2252 ;; Tracked objects:
  2253 ;;		On entry : 0/0
  2254 ;;		On exit  : 0/0
  2255 ;;		Unchanged: 0/0
  2256 ;; Data sizes:     COMMON   BANK0   BANK1   BANK2   BANK3   BANK4   BANK5   BANK6   BANK7   BANK8   BANK9  BANK10  BANK1
      +1  BANK12
  2257 ;;      Params:         0       0       0       0       0       0       0       0       0       0       0       0       
      +0       0
  2258 ;;      Locals:         0       0       0       0       0       0       0       0       0       0       0       0       
      +0       0
  2259 ;;      Temps:          0       0       0       0       0       0       0       0       0       0       0       0       
      +0       0
  2260 ;;      Totals:         0       0       0       0       0       0       0       0       0       0       0       0       
      +0       0
  2261 ;;Total ram usage:        0 bytes
  2262 ;; Hardware stack levels used:    1
  2263 ;; Hardware stack levels required when called:    4
  2264 ;; This function calls:
  2265 ;;		_ADC_SetInterruptHandler
  2266 ;; This function is called by:
  2267 ;;		_SYSTEM_Initialize
  2268 ;;		_main
  2269 ;; This function uses a non-reentrant model
  2270 ;;
  2271                           
  2272                           
  2273                           ;psect for function _ADC_Initialize
  2274  00AF                     _ADC_Initialize:
  2275  00AF                     l859:	
  2276                           ;incstack = 0
  2277                           ; Regs used in _ADC_Initialize: [wreg+status,2+status,0+pclath+cstack]
  2278                           
  2279                           
  2280                           ;mcc_generated_files/adc.c: 72:     ADCON1 = 0x00;
  2281  00AF  0021               	movlb	1	; select bank1
  2282  00B0  019E               	clrf	30	;volatile
  2283                           
  2284                           ;mcc_generated_files/adc.c: 75:     ADCON2 = 0x00;
  2285  00B1  019F               	clrf	31	;volatile
  2286                           
  2287                           ;mcc_generated_files/adc.c: 78:     ADRESL = 0x00;
  2288  00B2  019B               	clrf	27	;volatile
  2289                           
  2290                           ;mcc_generated_files/adc.c: 81:     ADRESH = 0x00;
  2291  00B3  019C               	clrf	28	;volatile
  2292  00B4                     l861:
  2293                           
  2294                           ;mcc_generated_files/adc.c: 84:     ADCON0 = 0x01;
  2295  00B4  3001               	movlw	1
  2296  00B5  009D               	movwf	29	;volatile
  2297  00B6                     l863:
  2298                           
  2299                           ;mcc_generated_files/adc.c: 87:     PIE1bits.ADIE = 1;
  2300  00B6  1711               	bsf	17,6	;volatile
  2301  00B7                     l865:
  2302                           
  2303                           ;mcc_generated_files/adc.c: 90:     ADC_SetInterruptHandler(ADC_DefaultInterruptHandler)
      +                          ;
  2304  00B7  30EB               	movlw	low _ADC_DefaultInterruptHandler
  2305  00B8  00F0               	movwf	ADC_SetInterruptHandler@InterruptHandler
  2306  00B9  3000               	movlw	high _ADC_DefaultInterruptHandler
  2307  00BA  00F1               	movwf	ADC_SetInterruptHandler@InterruptHandler+1
  2308  00BB  3180  20E1  3180   	fcall	_ADC_SetInterruptHandler
  2309  00BE                     l27:
  2310  00BE  0008               	return
  2311  00BF                     __end_of_ADC_Initialize:
  2312                           
  2313                           	psect	text6
  2314  00E1                     __ptext6:	
  2315 ;; *************** function _ADC_SetInterruptHandler *****************
  2316 ;; Defined at:
  2317 ;;		line 159 in file "mcc_generated_files/adc.c"
  2318 ;; Parameters:    Size  Location     Type
  2319 ;;  InterruptHan    2    0[COMMON] PTR FTN()void 
  2320 ;;		 -> ADC_DefaultInterruptHandler(1), 
  2321 ;; Auto vars:     Size  Location     Type
  2322 ;;		None
  2323 ;; Return value:  Size  Location     Type
  2324 ;;                  1    wreg      void 
  2325 ;; Registers used:
  2326 ;;		wreg
  2327 ;; Tracked objects:
  2328 ;;		On entry : 0/0
  2329 ;;		On exit  : 0/0
  2330 ;;		Unchanged: 0/0
  2331 ;; Data sizes:     COMMON   BANK0   BANK1   BANK2   BANK3   BANK4   BANK5   BANK6   BANK7   BANK8   BANK9  BANK10  BANK1
      +1  BANK12
  2332 ;;      Params:         2       0       0       0       0       0       0       0       0       0       0       0       
      +0       0
  2333 ;;      Locals:         0       0       0       0       0       0       0       0       0       0       0       0       
      +0       0
  2334 ;;      Temps:          0       0       0       0       0       0       0       0       0       0       0       0       
      +0       0
  2335 ;;      Totals:         2       0       0       0       0       0       0       0       0       0       0       0       
      +0       0
  2336 ;;Total ram usage:        2 bytes
  2337 ;; Hardware stack levels used:    1
  2338 ;; Hardware stack levels required when called:    3
  2339 ;; This function calls:
  2340 ;;		Nothing
  2341 ;; This function is called by:
  2342 ;;		_ADC_Initialize
  2343 ;; This function uses a non-reentrant model
  2344 ;;
  2345                           
  2346                           
  2347                           ;psect for function _ADC_SetInterruptHandler
  2348  00E1                     _ADC_SetInterruptHandler:
  2349  00E1                     l857:	
  2350                           ;incstack = 0
  2351                           ; Regs used in _ADC_SetInterruptHandler: [wreg]
  2352                           
  2353                           
  2354                           ;mcc_generated_files/adc.c: 160:     ADC_InterruptHandler = InterruptHandler;
  2355  00E1  0871               	movf	ADC_SetInterruptHandler@InterruptHandler+1,w
  2356  00E2  00F7               	movwf	_ADC_InterruptHandler+1
  2357  00E3  0870               	movf	ADC_SetInterruptHandler@InterruptHandler,w
  2358  00E4  00F6               	movwf	_ADC_InterruptHandler
  2359  00E5                     l55:
  2360  00E5  0008               	return
  2361  00E6                     __end_of_ADC_SetInterruptHandler:
  2362                           
  2363                           	psect	text7
  2364  0098                     __ptext7:	
  2365 ;; *************** function _ADC_GetConversion *****************
  2366 ;; Defined at:
  2367 ;;		line 120 in file "mcc_generated_files/adc.c"
  2368 ;; Parameters:    Size  Location     Type
  2369 ;;  channel         1    wreg     enum E5578
  2370 ;; Auto vars:     Size  Location     Type
  2371 ;;  channel         1    3[COMMON] enum E5578
  2372 ;; Return value:  Size  Location     Type
  2373 ;;                  2    0[COMMON] unsigned short 
  2374 ;; Registers used:
  2375 ;;		wreg, status,2, status,0
  2376 ;; Tracked objects:
  2377 ;;		On entry : 0/0
  2378 ;;		On exit  : 0/0
  2379 ;;		Unchanged: 0/0
  2380 ;; Data sizes:     COMMON   BANK0   BANK1   BANK2   BANK3   BANK4   BANK5   BANK6   BANK7   BANK8   BANK9  BANK10  BANK1
      +1  BANK12
  2381 ;;      Params:         2       0       0       0       0       0       0       0       0       0       0       0       
      +0       0
  2382 ;;      Locals:         1       0       0       0       0       0       0       0       0       0       0       0       
      +0       0
  2383 ;;      Temps:          1       0       0       0       0       0       0       0       0       0       0       0       
      +0       0
  2384 ;;      Totals:         4       0       0       0       0       0       0       0       0       0       0       0       
      +0       0
  2385 ;;Total ram usage:        4 bytes
  2386 ;; Hardware stack levels used:    1
  2387 ;; Hardware stack levels required when called:    3
  2388 ;; This function calls:
  2389 ;;		Nothing
  2390 ;; This function is called by:
  2391 ;;		_main
  2392 ;; This function uses a non-reentrant model
  2393 ;;
  2394                           
  2395                           
  2396                           ;psect for function _ADC_GetConversion
  2397  0098                     _ADC_GetConversion:
  2398                           
  2399                           ;incstack = 0
  2400                           ; Regs used in _ADC_GetConversion: [wreg+status,2+status,0]
  2401                           ;ADC_GetConversion@channel stored from wreg
  2402  0098  00F3               	movwf	ADC_GetConversion@channel
  2403  0099                     l867:
  2404                           
  2405                           ;mcc_generated_files/adc.c: 120: adc_result_t ADC_GetConversion(adc_channel_t channel);m
      +                          cc_generated_files/adc.c: 121: {;mcc_generated_files/adc.c: 123:     ADCON0bits.CHS = ch
      +                          annel;
  2406  0099  0873               	movf	ADC_GetConversion@channel,w
  2407  009A  00F2               	movwf	??_ADC_GetConversion
  2408  009B  0DF2               	rlf	??_ADC_GetConversion,f
  2409  009C  0DF2               	rlf	??_ADC_GetConversion,f
  2410  009D  0021               	movlb	1	; select bank1
  2411  009E  081D               	movf	29,w	;volatile
  2412  009F  0672               	xorwf	??_ADC_GetConversion,w
  2413  00A0  3983               	andlw	-125
  2414  00A1  0672               	xorwf	??_ADC_GetConversion,w
  2415  00A2  009D               	movwf	29	;volatile
  2416  00A3                     l869:
  2417                           
  2418                           ;mcc_generated_files/adc.c: 126:     ADCON0bits.ADON = 1;
  2419  00A3  141D               	bsf	29,0	;volatile
  2420  00A4                     l871:
  2421  00A4                     l873:	
  2422                           ;mcc_generated_files/adc.c: 129:     _delay((unsigned long)((5)*(500000/4000000.0)));
  2423                           
  2424                           
  2425                           ;mcc_generated_files/adc.c: 132:     ADCON0bits.GO_nDONE = 1;
  2426  00A4  0021               	movlb	1	; select bank1
  2427  00A5  149D               	bsf	29,1	;volatile
  2428  00A6                     l42:	
  2429                           ;mcc_generated_files/adc.c: 136:     {;mcc_generated_files/adc.c: 137:     }
  2430                           
  2431                           
  2432                           ;mcc_generated_files/adc.c: 135:     while (ADCON0bits.GO_nDONE)
  2433  00A6  189D               	btfsc	29,1	;volatile
  2434  00A7  28A9               	goto	u101
  2435  00A8  28AA               	goto	u100
  2436  00A9                     u101:
  2437  00A9  28A6               	goto	l42
  2438  00AA                     u100:
  2439  00AA                     l875:
  2440                           
  2441                           ;mcc_generated_files/adc.c: 140:     return ((adc_result_t)((ADRESH << 8) + ADRESL));
  2442  00AA  081C               	movf	28,w	;volatile
  2443  00AB  00F1               	movwf	?_ADC_GetConversion+1
  2444  00AC  081B               	movf	27,w	;volatile
  2445  00AD  00F0               	movwf	?_ADC_GetConversion
  2446  00AE                     l45:
  2447  00AE  0008               	return
  2448  00AF                     __end_of_ADC_GetConversion:
  2449                           
  2450                           	psect	intentry
  2451  0004                     __pintentry:	
  2452 ;; *************** function _INTERRUPT_InterruptManager *****************
  2453 ;; Defined at:
  2454 ;;		line 52 in file "mcc_generated_files/interrupt_manager.c"
  2455 ;; Parameters:    Size  Location     Type
  2456 ;;		None
  2457 ;; Auto vars:     Size  Location     Type
  2458 ;;		None
  2459 ;; Return value:  Size  Location     Type
  2460 ;;                  1    wreg      void 
  2461 ;; Registers used:
  2462 ;;		wreg, status,2, status,0, pclath, cstack
  2463 ;; Tracked objects:
  2464 ;;		On entry : 0/0
  2465 ;;		On exit  : 0/0
  2466 ;;		Unchanged: 0/0
  2467 ;; Data sizes:     COMMON   BANK0   BANK1   BANK2   BANK3   BANK4   BANK5   BANK6   BANK7   BANK8   BANK9  BANK10  BANK1
      +1  BANK12
  2468 ;;      Params:         0       0       0       0       0       0       0       0       0       0       0       0       
      +0       0
  2469 ;;      Locals:         0       0       0       0       0       0       0       0       0       0       0       0       
      +0       0
  2470 ;;      Temps:          0       0       0       0       0       0       0       0       0       0       0       0       
      +0       0
  2471 ;;      Totals:         0       0       0       0       0       0       0       0       0       0       0       0       
      +0       0
  2472 ;;Total ram usage:        0 bytes
  2473 ;; Hardware stack levels used:    1
  2474 ;; Hardware stack levels required when called:    2
  2475 ;; This function calls:
  2476 ;;		_ADC_ISR
  2477 ;;		_PIN_MANAGER_IOC
  2478 ;; This function is called by:
  2479 ;;		Interrupt level 1
  2480 ;; This function uses a non-reentrant model
  2481 ;;
  2482                           
  2483  0004                     _INTERRUPT_InterruptManager:
  2484                           
  2485                           ;incstack = 0
  2486  0004  147E               	bsf	int$flags,0	;set compiler interrupt flag (level 1)
  2487                           
  2488                           ; Regs used in _INTERRUPT_InterruptManager: [wreg+status,2+status,0+pclath+cstack]
  2489  0005  3180               	pagesel	$
  2490  0006                     i1l845:
  2491                           
  2492                           ;mcc_generated_files/interrupt_manager.c: 55:     if(INTCONbits.IOCIE == 1 && INTCONbits
      +                          .IOCIF == 1)
  2493  0006  1D8B               	btfss	11,3	;volatile
  2494  0007  2809               	goto	u5_21
  2495  0008  280A               	goto	u5_20
  2496  0009                     u5_21:
  2497  0009  2812               	goto	i1l203
  2498  000A                     u5_20:
  2499  000A                     i1l847:
  2500  000A  1C0B               	btfss	11,0	;volatile
  2501  000B  280D               	goto	u6_21
  2502  000C  280E               	goto	u6_20
  2503  000D                     u6_21:
  2504  000D  2812               	goto	i1l203
  2505  000E                     u6_20:
  2506  000E                     i1l849:
  2507                           
  2508                           ;mcc_generated_files/interrupt_manager.c: 56:     {;mcc_generated_files/interrupt_manage
      +                          r.c: 57:         PIN_MANAGER_IOC();
  2509  000E  3180  20EA  3180   	fcall	_PIN_MANAGER_IOC
  2510                           
  2511                           ;mcc_generated_files/interrupt_manager.c: 58:     }
  2512  0011  2824               	goto	i1l209
  2513  0012                     i1l203:	
  2514                           ;mcc_generated_files/interrupt_manager.c: 59:     else if(INTCONbits.PEIE == 1)
  2515                           
  2516  0012  1F0B               	btfss	11,6	;volatile
  2517  0013  2815               	goto	u7_21
  2518  0014  2816               	goto	u7_20
  2519  0015                     u7_21:
  2520  0015  2824               	goto	i1l209
  2521  0016                     u7_20:
  2522  0016                     i1l851:
  2523                           
  2524                           ;mcc_generated_files/interrupt_manager.c: 60:     {;mcc_generated_files/interrupt_manage
      +                          r.c: 61:         if(PIE1bits.ADIE == 1 && PIR1bits.ADIF == 1)
  2525  0016  0021               	movlb	1	; select bank1
  2526  0017  1F11               	btfss	17,6	;volatile
  2527  0018  281A               	goto	u8_21
  2528  0019  281B               	goto	u8_20
  2529  001A                     u8_21:
  2530  001A  2824               	goto	i1l208
  2531  001B                     u8_20:
  2532  001B                     i1l853:
  2533  001B  0020               	movlb	0	; select bank0
  2534  001C  1F11               	btfss	17,6	;volatile
  2535  001D  281F               	goto	u9_21
  2536  001E  2820               	goto	u9_20
  2537  001F                     u9_21:
  2538  001F  2824               	goto	i1l208
  2539  0020                     u9_20:
  2540  0020                     i1l855:
  2541                           
  2542                           ;mcc_generated_files/interrupt_manager.c: 62:         {;mcc_generated_files/interrupt_ma
      +                          nager.c: 63:             ADC_ISR();
  2543  0020  3180  20BF  3180   	fcall	_ADC_ISR
  2544                           
  2545                           ;mcc_generated_files/interrupt_manager.c: 64:         }
  2546  0023  2824               	goto	i1l209
  2547  0024                     i1l208:	
  2548                           ;mcc_generated_files/interrupt_manager.c: 71:     {;mcc_generated_files/interrupt_manage
      +                          r.c: 73:     }
  2549                           
  2550  0024                     i1l209:
  2551  0024  107E               	bcf	int$flags,0	;clear compiler interrupt flag (level 1)
  2552  0025  0009               	retfie
  2553  0026                     __end_of_INTERRUPT_InterruptManager:
  2554                           
  2555                           	psect	text9
  2556  00EA                     __ptext9:	
  2557 ;; *************** function _PIN_MANAGER_IOC *****************
  2558 ;; Defined at:
  2559 ;;		line 131 in file "mcc_generated_files/pin_manager.c"
  2560 ;; Parameters:    Size  Location     Type
  2561 ;;		None
  2562 ;; Auto vars:     Size  Location     Type
  2563 ;;		None
  2564 ;; Return value:  Size  Location     Type
  2565 ;;                  1    wreg      void 
  2566 ;; Registers used:
  2567 ;;		None
  2568 ;; Tracked objects:
  2569 ;;		On entry : 0/0
  2570 ;;		On exit  : 0/0
  2571 ;;		Unchanged: 0/0
  2572 ;; Data sizes:     COMMON   BANK0   BANK1   BANK2   BANK3   BANK4   BANK5   BANK6   BANK7   BANK8   BANK9  BANK10  BANK1
      +1  BANK12
  2573 ;;      Params:         0       0       0       0       0       0       0       0       0       0       0       0       
      +0       0
  2574 ;;      Locals:         0       0       0       0       0       0       0       0       0       0       0       0       
      +0       0
  2575 ;;      Temps:          0       0       0       0       0       0       0       0       0       0       0       0       
      +0       0
  2576 ;;      Totals:         0       0       0       0       0       0       0       0       0       0       0       0       
      +0       0
  2577 ;;Total ram usage:        0 bytes
  2578 ;; Hardware stack levels used:    1
  2579 ;; This function calls:
  2580 ;;		Nothing
  2581 ;; This function is called by:
  2582 ;;		_INTERRUPT_InterruptManager
  2583 ;; This function uses a non-reentrant model
  2584 ;;
  2585                           
  2586                           
  2587                           ;psect for function _PIN_MANAGER_IOC
  2588  00EA                     _PIN_MANAGER_IOC:
  2589  00EA                     i1l163:	
  2590                           ;incstack = 0
  2591                           ; Regs used in _PIN_MANAGER_IOC: []
  2592                           
  2593  00EA  0008               	return
  2594  00EB                     __end_of_PIN_MANAGER_IOC:
  2595                           
  2596                           	psect	text10
  2597  00BF                     __ptext10:	
  2598 ;; *************** function _ADC_ISR *****************
  2599 ;; Defined at:
  2600 ;;		line 148 in file "mcc_generated_files/adc.c"
  2601 ;; Parameters:    Size  Location     Type
  2602 ;;		None
  2603 ;; Auto vars:     Size  Location     Type
  2604 ;;		None
  2605 ;; Return value:  Size  Location     Type
  2606 ;;                  1    wreg      void 
  2607 ;; Registers used:
  2608 ;;		wreg, status,2, status,0, pclath, cstack
  2609 ;; Tracked objects:
  2610 ;;		On entry : 0/0
  2611 ;;		On exit  : 0/0
  2612 ;;		Unchanged: 0/0
  2613 ;; Data sizes:     COMMON   BANK0   BANK1   BANK2   BANK3   BANK4   BANK5   BANK6   BANK7   BANK8   BANK9  BANK10  BANK1
      +1  BANK12
  2614 ;;      Params:         0       0       0       0       0       0       0       0       0       0       0       0       
      +0       0
  2615 ;;      Locals:         0       0       0       0       0       0       0       0       0       0       0       0       
      +0       0
  2616 ;;      Temps:          0       0       0       0       0       0       0       0       0       0       0       0       
      +0       0
  2617 ;;      Totals:         0       0       0       0       0       0       0       0       0       0       0       0       
      +0       0
  2618 ;;Total ram usage:        0 bytes
  2619 ;; Hardware stack levels used:    1
  2620 ;; Hardware stack levels required when called:    1
  2621 ;; This function calls:
  2622 ;;		Absolute function
  2623 ;;		_ADC_DefaultInterruptHandler
  2624 ;; This function is called by:
  2625 ;;		_INTERRUPT_InterruptManager
  2626 ;; This function uses a non-reentrant model
  2627 ;;
  2628                           
  2629                           
  2630                           ;psect for function _ADC_ISR
  2631  00BF                     _ADC_ISR:
  2632  00BF                     i1l811:	
  2633                           ;incstack = 0
  2634                           ; Regs used in _ADC_ISR: [wreg+status,2+status,0+pclath+cstack]
  2635                           
  2636                           
  2637                           ;mcc_generated_files/adc.c: 151:     PIR1bits.ADIF = 0;
  2638  00BF  0020               	movlb	0	; select bank0
  2639  00C0  1311               	bcf	17,6	;volatile
  2640  00C1                     i1l813:
  2641                           
  2642                           ;mcc_generated_files/adc.c: 153:  if(ADC_InterruptHandler)
  2643  00C1  0876               	movf	_ADC_InterruptHandler,w
  2644  00C2  0477               	iorwf	_ADC_InterruptHandler+1,w
  2645  00C3  1903               	btfsc	3,2
  2646  00C4  28C6               	goto	u2_21
  2647  00C5  28C7               	goto	u2_20
  2648  00C6                     u2_21:
  2649  00C6  28CC               	goto	i1l52
  2650  00C7                     u2_20:
  2651  00C7                     i1l815:
  2652                           
  2653                           ;mcc_generated_files/adc.c: 154:     {;mcc_generated_files/adc.c: 155:         ADC_Inter
      +                          ruptHandler();
  2654  00C7  0877               	movf	_ADC_InterruptHandler+1,w
  2655  00C8  008A               	movwf	10
  2656  00C9  0876               	movf	_ADC_InterruptHandler,w
  2657  00CA  000A               	callw
  2658  00CB  3180               	pagesel	$
  2659  00CC                     i1l52:
  2660  00CC  0008               	return
  2661  00CD                     __end_of_ADC_ISR:
  2662                           
  2663                           	psect	text11
  2664  00EB                     __ptext11:	
  2665 ;; *************** function _ADC_DefaultInterruptHandler *****************
  2666 ;; Defined at:
  2667 ;;		line 163 in file "mcc_generated_files/adc.c"
  2668 ;; Parameters:    Size  Location     Type
  2669 ;;		None
  2670 ;; Auto vars:     Size  Location     Type
  2671 ;;		None
  2672 ;; Return value:  Size  Location     Type
  2673 ;;                  1    wreg      void 
  2674 ;; Registers used:
  2675 ;;		None
  2676 ;; Tracked objects:
  2677 ;;		On entry : 0/0
  2678 ;;		On exit  : 0/0
  2679 ;;		Unchanged: 0/0
  2680 ;; Data sizes:     COMMON   BANK0   BANK1   BANK2   BANK3   BANK4   BANK5   BANK6   BANK7   BANK8   BANK9  BANK10  BANK1
      +1  BANK12
  2681 ;;      Params:         0       0       0       0       0       0       0       0       0       0       0       0       
      +0       0
  2682 ;;      Locals:         0       0       0       0       0       0       0       0       0       0       0       0       
      +0       0
  2683 ;;      Temps:          0       0       0       0       0       0       0       0       0       0       0       0       
      +0       0
  2684 ;;      Totals:         0       0       0       0       0       0       0       0       0       0       0       0       
      +0       0
  2685 ;;Total ram usage:        0 bytes
  2686 ;; Hardware stack levels used:    1
  2687 ;; This function calls:
  2688 ;;		Nothing
  2689 ;; This function is called by:
  2690 ;;		_ADC_Initialize
  2691 ;;		_ADC_ISR
  2692 ;; This function uses a non-reentrant model
  2693 ;;
  2694                           
  2695                           
  2696                           ;psect for function _ADC_DefaultInterruptHandler
  2697  00EB                     _ADC_DefaultInterruptHandler:
  2698  00EB                     i1l58:	
  2699                           ;incstack = 0
  2700                           ; Regs used in _ADC_DefaultInterruptHandler: []
  2701                           
  2702  00EB  0008               	return
  2703  00EC                     __end_of_ADC_DefaultInterruptHandler:
  2704  007E                     btemp	set	126	;btemp
  2705  007E                     int$flags	set	126
  2706  007E                     wtemp0	set	126
  2707                           
  2708                           	psect	config
  2709                           
  2710                           ;Config register CONFIG1 @ 0x8007
  2711                           ;	Oscillator Selection Bits
  2712                           ;	FOSC = INTOSC, INTOSC oscillator: I/O function on CLKIN pin
  2713                           ;	Watchdog Timer Enable
  2714                           ;	WDTE = OFF, WDT disabled
  2715                           ;	Power-up Timer Enable
  2716                           ;	PWRTE = OFF, PWRT disabled
  2717                           ;	MCLR Pin Function Select
  2718                           ;	MCLRE = ON, MCLR/VPP pin function is MCLR
  2719                           ;	Flash Program Memory Code Protection
  2720                           ;	CP = OFF, Program memory code protection is disabled
  2721                           ;	Brown-out Reset Enable
  2722                           ;	BOREN = ON, Brown-out Reset enabled
  2723                           ;	Clock Out Enable
  2724                           ;	CLKOUTEN = OFF, CLKOUT function is disabled. I/O or oscillator function on the CLKOUT 
      +                          pin
  2725                           ;	Internal/External Switchover Mode
  2726                           ;	IESO = ON, Internal/External Switchover Mode is enabled
  2727                           ;	Fail-Safe Clock Monitor Enable
  2728                           ;	FCMEN = ON, Fail-Safe Clock Monitor is enabled
  2729  8007                     	org	32775
  2730  8007  3FE4               	dw	16356
  2731                           
  2732                           ;Config register CONFIG2 @ 0x8008
  2733                           ;	Flash Memory Self-Write Protection
  2734                           ;	WRT = OFF, Write protection off
  2735                           ;	Peripheral Pin Select one-way control
  2736                           ;	PPS1WAY = ON, The PPSLOCK bit cannot be cleared once it is set by software
  2737                           ;	Zero-cross detect disable
  2738                           ;	ZCDDIS = ON, Zero-cross detect circuit is disabled at POR and can be enabled with ZCDS
      +                          EN bit.
  2739                           ;	Phase Lock Loop enable
  2740                           ;	PLLEN = OFF, 4x PLL is enabled when software sets the SPLLEN bit
  2741                           ;	Stack Overflow/Underflow Reset Enable
  2742                           ;	STVREN = ON, Stack Overflow or Underflow will cause a Reset
  2743                           ;	Brown-out Reset Voltage Selection
  2744                           ;	BORV = LO, Brown-out Reset Voltage (Vbor), low trip point selected.
  2745                           ;	Low-Power Brown Out Reset
  2746                           ;	LPBOR = OFF, Low-Power BOR is disabled
  2747                           ;	Low-Voltage Programming Enable
  2748                           ;	LVP = ON, Low-voltage programming enabled
  2749  8008                     	org	32776
  2750  8008  3EFF               	dw	16127

Data Sizes:
    Strings     0
    Constant    0
    Data        0
    BSS         0
    Persistent  34
    Stack       0

Auto Spaces:
    Space          Size  Autos    Used
    COMMON           14      6       8
    BANK0            80      0       0
    BANK1            80      0       0
    BANK2            80      0       0
    BANK3            80      0       0
    BANK4            80      0       0
    BANK5            80      0       0
    BANK6            80      0       0
    BANK7            80      0       0
    BANK8            80      0       0
    BANK9            80      0       0
    BANK10           80      0       0
    BANK11           80      0       0
    BANK12           48      0       0

Pointer List with Targets:

    ADC_SetInterruptHandler@InterruptHandler	PTR FTN()void  size(2) Largest target is 1
		 -> ADC_DefaultInterruptHandler(), 

    ADC_InterruptHandler	PTR FTN()void  size(2) Largest target is 1
		 -> Absolute function(), ADC_DefaultInterruptHandler(), 


Critical Paths under _main in COMMON

    _main->_ADC_GetConversion
    _ADC_Initialize->_ADC_SetInterruptHandler

Critical Paths under _INTERRUPT_InterruptManager in COMMON

    None.

Critical Paths under _main in BANK0

    None.

Critical Paths under _INTERRUPT_InterruptManager in BANK0

    None.

Critical Paths under _main in BANK1

    None.

Critical Paths under _INTERRUPT_InterruptManager in BANK1

    None.

Critical Paths under _main in BANK2

    None.

Critical Paths under _INTERRUPT_InterruptManager in BANK2

    None.

Critical Paths under _main in BANK3

    None.

Critical Paths under _INTERRUPT_InterruptManager in BANK3

    None.

Critical Paths under _main in BANK4

    None.

Critical Paths under _INTERRUPT_InterruptManager in BANK4

    None.

Critical Paths under _main in BANK5

    None.

Critical Paths under _INTERRUPT_InterruptManager in BANK5

    None.

Critical Paths under _main in BANK6

    None.

Critical Paths under _INTERRUPT_InterruptManager in BANK6

    None.

Critical Paths under _main in BANK7

    None.

Critical Paths under _INTERRUPT_InterruptManager in BANK7

    None.

Critical Paths under _main in BANK8

    None.

Critical Paths under _INTERRUPT_InterruptManager in BANK8

    None.

Critical Paths under _main in BANK9

    None.

Critical Paths under _INTERRUPT_InterruptManager in BANK9

    None.

Critical Paths under _main in BANK10

    None.

Critical Paths under _INTERRUPT_InterruptManager in BANK10

    None.

Critical Paths under _main in BANK11

    None.

Critical Paths under _INTERRUPT_InterruptManager in BANK11

    None.

Critical Paths under _main in BANK12

    None.

Critical Paths under _INTERRUPT_InterruptManager in BANK12

    None.

Call Graph Tables:

 ---------------------------------------------------------------------------------
 (Depth) Function   	        Calls       Base Space   Used Autos Params    Refs
 ---------------------------------------------------------------------------------
 (0) _main                                                 2     2      0     263
                                              4 COMMON     2     2      0
                  _ADC_GetConversion
                     _ADC_Initialize
                  _SYSTEM_Initialize
 ---------------------------------------------------------------------------------
 (1) _SYSTEM_Initialize                                    0     0      0      98
                     _ADC_Initialize
              _OSCILLATOR_Initialize
             _PIN_MANAGER_Initialize
                     _WDT_Initialize
 ---------------------------------------------------------------------------------
 (2) _WDT_Initialize                                       0     0      0       0
 ---------------------------------------------------------------------------------
 (2) _PIN_MANAGER_Initialize                               0     0      0       0
 ---------------------------------------------------------------------------------
 (2) _OSCILLATOR_Initialize                                0     0      0       0
 ---------------------------------------------------------------------------------
 (2) _ADC_Initialize                                       0     0      0      98
            _ADC_SetInterruptHandler
 ---------------------------------------------------------------------------------
 (3) _ADC_SetInterruptHandler                              2     0      2      98
                                              0 COMMON     2     0      2
 ---------------------------------------------------------------------------------
 (1) _ADC_GetConversion                                    4     2      2      22
                                              0 COMMON     4     2      2
 ---------------------------------------------------------------------------------
 Estimated maximum stack depth 3
 ---------------------------------------------------------------------------------
 (Depth) Function   	        Calls       Base Space   Used Autos Params    Refs
 ---------------------------------------------------------------------------------
 (4) _INTERRUPT_InterruptManager                           0     0      0       0
                            _ADC_ISR
                    _PIN_MANAGER_IOC
 ---------------------------------------------------------------------------------
 (5) _PIN_MANAGER_IOC                                      0     0      0       0
 ---------------------------------------------------------------------------------
 (5) _ADC_ISR                                              0     0      0       0
                   Absolute function *
        _ADC_DefaultInterruptHandler *
 ---------------------------------------------------------------------------------
 (6) _ADC_DefaultInterruptHandler                          0     0      0       0
 ---------------------------------------------------------------------------------
 (6) Absolute function(Fake)                               0     0      0       0
 ---------------------------------------------------------------------------------
 Estimated maximum stack depth 6
 ---------------------------------------------------------------------------------

 Call Graph Graphs:

 _main (ROOT)
   _ADC_GetConversion
   _ADC_Initialize
     _ADC_SetInterruptHandler
   _SYSTEM_Initialize
     _ADC_Initialize
       _ADC_SetInterruptHandler
     _OSCILLATOR_Initialize
     _PIN_MANAGER_Initialize
     _WDT_Initialize

 _INTERRUPT_InterruptManager (ROOT)
   _ADC_ISR
     Absolute function(Fake) *
     _ADC_DefaultInterruptHandler *
   _PIN_MANAGER_IOC

 Address spaces:
Name               Size   Autos  Total    Cost      Usage
BIGRAM             3F0      0       0       0        0.0%
NULL                 0      0       0       0        0.0%
CODE                 0      0       0       0        0.0%
BITCOMMON            E      0       0       1        0.0%
BITSFR0              0      0       0       1        0.0%
SFR0                 0      0       0       1        0.0%
COMMON               E      6       8       2       57.1%
BITSFR1              0      0       0       2        0.0%
SFR1                 0      0       0       2        0.0%
BITSFR2              0      0       0       3        0.0%
SFR2                 0      0       0       3        0.0%
STACK                0      0       0       3        0.0%
BITBANK0            50      0       0       4        0.0%
BITSFR3              0      0       0       4        0.0%
SFR3                 0      0       0       4        0.0%
BANK0               50      0       0       5        0.0%
BITSFR4              0      0       0       5        0.0%
SFR4                 0      0       0       5        0.0%
BITBANK1            50      0       0       6        0.0%
BITSFR5              0      0       0       6        0.0%
SFR5                 0      0       0       6        0.0%
BANK1               50      0       0       7        0.0%
BITSFR6              0      0       0       7        0.0%
SFR6                 0      0       0       7        0.0%
BITBANK2            50      0       0       8        0.0%
BITSFR7              0      0       0       8        0.0%
SFR7                 0      0       0       8        0.0%
BANK2               50      0       0       9        0.0%
BITSFR8              0      0       0       9        0.0%
SFR8                 0      0       0       9        0.0%
BITBANK3            50      0       0      10        0.0%
BITSFR9              0      0       0      10        0.0%
SFR9                 0      0       0      10        0.0%
BANK3               50      0       0      11        0.0%
BITSFR10             0      0       0      11        0.0%
SFR10                0      0       0      11        0.0%
BITBANK4            50      0       0      12        0.0%
BITSFR11             0      0       0      12        0.0%
SFR11                0      0       0      12        0.0%
BANK4               50      0       0      13        0.0%
BITSFR12             0      0       0      13        0.0%
SFR12                0      0       0      13        0.0%
BITBANK5            50      0       0      14        0.0%
BITSFR13             0      0       0      14        0.0%
SFR13                0      0       0      14        0.0%
BANK5               50      0       0      15        0.0%
BITSFR14             0      0       0      15        0.0%
SFR14                0      0       0      15        0.0%
BITBANK6            50      0       0      16        0.0%
BITSFR15             0      0       0      16        0.0%
SFR15                0      0       0      16        0.0%
BANK6               50      0       0      17        0.0%
BITSFR16             0      0       0      17        0.0%
SFR16                0      0       0      17        0.0%
BITBANK7            50      0       0      18        0.0%
BITSFR17             0      0       0      18        0.0%
SFR17                0      0       0      18        0.0%
BANK7               50      0       0      19        0.0%
BITSFR18             0      0       0      19        0.0%
SFR18                0      0       0      19        0.0%
BITSFR19             0      0       0      20        0.0%
SFR19                0      0       0      20        0.0%
ABS                  0      0       8      20        0.0%
BITBANK8            50      0       0      21        0.0%
BITSFR20             0      0       0      21        0.0%
SFR20                0      0       0      21        0.0%
BANK8               50      0       0      22        0.0%
BITSFR21             0      0       0      22        0.0%
SFR21                0      0       0      22        0.0%
BITBANK9            50      0       0      23        0.0%
BITSFR22             0      0       0      23        0.0%
SFR22                0      0       0      23        0.0%
BANK9               50      0       0      24        0.0%
BITSFR23             0      0       0      24        0.0%
SFR23                0      0       0      24        0.0%
BITBANK10           50      0       0      25        0.0%
BITSFR24             0      0       0      25        0.0%
SFR24                0      0       0      25        0.0%
BANK10              50      0       0      26        0.0%
BITSFR25             0      0       0      26        0.0%
SFR25                0      0       0      26        0.0%
BITBANK11           50      0       0      27        0.0%
BITSFR26             0      0       0      27        0.0%
SFR26                0      0       0      27        0.0%
BANK11              50      0       0      28        0.0%
BITSFR27             0      0       0      28        0.0%
SFR27                0      0       0      28        0.0%
BITBANK12           30      0       0      29        0.0%
BITSFR28             0      0       0      29        0.0%
SFR28                0      0       0      29        0.0%
BANK12              30      0       0      30        0.0%
BITSFR29             0      0       0      30        0.0%
SFR29                0      0       0      30        0.0%
BITSFR30             0      0       0      31        0.0%
SFR30                0      0       0      31        0.0%
DATA                 0      0       8      31        0.0%
BITSFR31             0      0       0      32        0.0%
SFR31                0      0       0      32        0.0%


Microchip Technology PIC Macro Assembler V2.31 build 20201012212115 
Symbol Table                                                                                   Sat Apr 10 23:14:18 2021

                                     l42 00A6                                       l27 00BE  
                                     l45 00AE                                       l55 00E5  
                                     l80 00E0                                       l83 00E9  
                                     l77 00D9                                      l160 006D  
                                    l180 0087                                      l184 0093  
                                    l178 0073                                      l751 0037  
                                    l761 0042                                      l753 0039  
                                    l745 002C                                      l771 0059  
                                    l763 0044                                      l755 003B  
                                    l747 0032                                      l861 00B4  
                                    l781 0064                                      l773 005B  
                                    l765 0046                                      l757 003D  
                                    l749 0035                                      l871 00A4  
                                    l863 00B6                                      l791 00DA  
                                    l783 0066                                      l775 005D  
                                    l767 004E                                      l759 0040  
                                    l873 00A4                                      l857 00E1  
                                    l865 00B7                                      l793 00DD  
                                    l785 0068                                      l777 005F  
                                    l769 0056                                      l881 006E  
                                    l875 00AA                                      l867 0099  
                                    l859 00AF                                      l795 00DE  
                                    l787 006A                                      l779 0061  
                                    l883 0071                                      l869 00A3  
                                    l789 006C                                      l797 00E6  
                                    l885 0072                                      l879 00CD  
                                    l887 007E                                      l889 008A  
                                    u100 00AA                                      u101 00A9  
                                    u110 0087                                      u111 0086  
                                    u120 0093                                      u121 0092  
                        __end_of_ADC_ISR 00CD          __end_of_ADC_SetInterruptHandler 00E6  
           ?_ADC_DefaultInterruptHandler 0070                                     _LATA 010C  
                                   _LATB 010D                                     _LATC 010E  
                                   _LATD 010F                                     _LATE 0110  
                                   i1l52 00CC                                     i1l58 00EB  
                                   _WPUA 020C                                     _WPUB 020D  
                                   _WPUC 020E                                     _WPUD 020F  
                                   _WPUE 0210                                     u2_20 00C7  
                                   u2_21 00C6                                     u5_20 000A  
                                   u5_21 0009                                     u6_20 000E  
                                   u6_21 000D                                     u7_20 0016  
                                   u7_21 0015                                     u8_20 001B  
                                   u8_21 001A                                     u9_20 0020  
                                   u9_21 001F                                     _main 006E  
                                   btemp 007E                                     start 0026  
         __size_of_OSCILLATOR_Initialize 0007            __end_of_OSCILLATOR_Initialize 00E1  
                                  ?_main 0070                                    i1l203 0012  
                                  i1l208 0024                                    i1l209 0024  
                                  i1l163 00EA                                    i1l811 00BF  
                                  i1l813 00C1                                    i1l815 00C7  
                                  i1l851 0016                                    i1l853 001B  
                                  i1l845 0006                                    i1l855 0020  
                                  i1l847 000A                                    i1l849 000E  
                                  _TRISA 008C                                    _TRISB 008D  
                                  _TRISC 008E                                    _TRISD 008F  
                                  _TRISE 0090                  __end_of_PIN_MANAGER_IOC 00EB  
                         _WDT_Initialize 00E6                                    pclath 000A  
                                  status 0003                                    wtemp0 007E  
                        __initialization 0028                             __end_of_main 0098  
                              ??_ADC_ISR 0070              ?_INTERRUPT_InterruptManager 0070  
                                 ??_main 0074                   __end_of_WDT_Initialize 00EA  
                                 _ADCON0 009D                                   _ADCON1 009E  
                                 _ADCON2 009F                                   _ADRESH 009C  
                                 _ADRESL 009B                                   _ANSELA 018C  
                                 _ANSELB 018D                                   _ANSELC 018E  
                                 _ANSELD 018F                                   _ANSELE 0190  
                                 _BORCON 0116                                   _ODCONA 028C  
                                 _ODCONB 028D                                   _ODCONC 028E  
                                 _ODCOND 028F                                   _ODCONE 0290  
                                 _INLVLA 038C                                   _INLVLB 038D  
                                 _INLVLC 038E                                   _INLVLD 038F  
                                 _INLVLE 0390                                   _OSCCON 0099  
                                 _WDTCON 0097     __size_of_ADC_DefaultInterruptHandler 0001  
       __size_of_ADC_SetInterruptHandler 0005                            main@resultado 0074  
                        ?_WDT_Initialize 0070                 ADC_GetConversion@channel 0073  
ADC_SetInterruptHandler@InterruptHandler 0070                         ?_PIN_MANAGER_IOC 0070  
                      _SYSTEM_Initialize 00CD                  __end_of__initialization 0028  
                     ?_SYSTEM_Initialize 0070                           __pcstackCOMMON 0070  
                    ??_SYSTEM_Initialize 0072                           _OPTION_REGbits 0095  
              __end_of_SYSTEM_Initialize 00DA                               __pnvCOMMON 0076  
                             __pmaintext 006E                               __pintentry 0004  
                                _ADC_ISR 00BF                  __size_of_ADC_Initialize 0010  
                                _OSCTUNE 0098                                  _SLRCONA 030C  
                                _SLRCONB 030D                                  _SLRCONC 030E  
                                _SLRCOND 030F                                  _SLRCONE 0310  
                   _ADC_InterruptHandler 0076                  _ADC_SetInterruptHandler 00E1  
                                __ptext1 00CD                                  __ptext2 00E6  
                                __ptext3 002C                                  __ptext4 00DA  
                                __ptext5 00AF                                  __ptext6 00E1  
                                __ptext7 0098                                  __ptext9 00EA  
                  _OSCILLATOR_Initialize 00DA                 ??_PIN_MANAGER_Initialize 0070  
             __size_of_SYSTEM_Initialize 000D                     end_of_initialization 0028  
                       ??_WDT_Initialize 0070      __end_of_ADC_DefaultInterruptHandler 00EC  
            _ADC_DefaultInterruptHandler 00EB            ??_ADC_DefaultInterruptHandler 0070  
              ??_ADC_SetInterruptHandler 0072                           _ADC_Initialize 00AF  
                 ?_OSCILLATOR_Initialize 0070                      start_initialization 0028  
        __size_of_PIN_MANAGER_Initialize 0042                 __size_of_PIN_MANAGER_IOC 0001  
                 __end_of_ADC_Initialize 00BF                                 ?_ADC_ISR 0070  
                              ___latbits 0002                   _PIN_MANAGER_Initialize 002C  
                        ?_ADC_Initialize 0070             ??_INTERRUPT_InterruptManager 0070  
                               _LATBbits 010D                                 _PIE1bits 0091  
    __size_of_INTERRUPT_InterruptManager 0022                                 _PIR1bits 0011  
                      ??_PIN_MANAGER_IOC 0070                         __size_of_ADC_ISR 000E  
                             _ADCON0bits 009D                        _ADC_GetConversion 0098  
                ??_OSCILLATOR_Initialize 0070                       ?_ADC_GetConversion 0070  
                    ??_ADC_GetConversion 0072                                 __ptext10 00BF  
                               __ptext11 00EB                            __size_of_main 002A  
              __end_of_ADC_GetConversion 00AF                                 int$flags 007E  
     __end_of_INTERRUPT_InterruptManager 0026               _INTERRUPT_InterruptManager 0004  
                             _INTCONbits 000B                 ?_ADC_SetInterruptHandler 0070  
                __size_of_WDT_Initialize 0004                                 intlevel1 0000  
                ?_PIN_MANAGER_Initialize 0070                         ??_ADC_Initialize 0072  
         __end_of_PIN_MANAGER_Initialize 006E                          _PIN_MANAGER_IOC 00EA  
             __size_of_ADC_GetConversion 0017  
